ccopy_reg
_reconstructor
p0
(cbpnn
NN
p1
c__builtin__
object
p2
Ntp3
R(dp4
S'nh'
p5
I64
sS'ni'
p6
I9
sS'ci'
p7
(lp8
(lp9
F-0.00022018328684896468
aF0.00020432569826677016
aF-9.1364934947535314e-05
aF2.683801414020455e-05
aF1.1259284917008357e-05
aF-0.00021677371634241526
aF0.000102171286202865
aF6.2157883924769787e-06
aF8.9917416943465634e-05
aF-5.8761829458507943e-05
aF-4.7512186504104297e-05
aF2.5571861796659076e-05
aF0.00018590720264585314
aF0.00012985041759495036
aF6.7255822982331052e-05
aF0.00020962843612239889
aF0.00030391311603855464
aF5.8960501090034569e-05
aF4.9321979569281292e-05
aF-1.2975079575465087e-05
aF-0.00023043623331641883
aF0.00019623305464885427
aF-9.6281932264688145e-05
aF0.00011806689493462599
aF9.7407023750646927e-05
aF0.00033375629606260688
aF1.2234904300574579e-05
aF-2.4947409871338943e-05
aF-0.00018801986099938983
aF1.6134821397160329e-05
aF9.9456070381909059e-05
aF-1.6150504948676943e-05
aF-3.4713617401293188e-05
aF-7.1110503759762056e-05
aF-1.2840948930893506e-05
aF-3.5328654430154109e-05
aF-3.48183920670463e-05
aF3.1771112761093402e-05
aF7.5716358207879107e-08
aF1.4410281417584768e-05
aF-3.6324303868676159e-05
aF-6.3203050009748238e-06
aF1.1479236352165104e-05
aF1.3685940192325908e-05
aF0.00019840598962884192
aF-1.9954463505077224e-05
aF-7.8211456586901765e-05
aF0.00023526200494482908
aF4.78143965529206e-05
aF-1.5167014537188389e-05
aF3.3509452985838212e-05
aF0.00010559952554978605
aF-0.0001899750124610264
aF-0.00023373017238875282
aF-1.4660399883684514e-05
aF-0.00036348009105801183
aF9.4121998371235688e-05
aF0.00034805661757040575
aF0.00014740996518789945
aF-3.5871050993798183e-05
aF0.00016494500586045774
aF0.00019336202022616689
aF0.00012756344337094055
aF8.1998729720533751e-05
aa(lp10
F-6.6604106949553422e-05
aF6.1807282717317357e-05
aF-2.7637337900486732e-05
aF8.1183362719712984e-06
aF3.4058653021304219e-06
aF-6.5572732579953638e-05
aF3.090619352093231e-05
aF1.8802382360306569e-06
aF2.7199472496013078e-05
aF-1.7775096510801699e-05
aF-1.4372147843797033e-05
aF7.7353328782496972e-06
aF5.6235799659990974e-05
aF3.9278962652922693e-05
aF2.034447796198149e-05
aF6.3411328711525847e-05
aF9.1931871731431152e-05
aF1.7835193472671102e-05
aF1.4919599253913794e-05
aF-3.924882765130302e-06
aF-6.9705560982868812e-05
aF5.9359307175004635e-05
aF-2.9124699724669866e-05
aF3.5714518617490123e-05
aF2.9465033065729642e-05
aF0.00010095925243085821
aF3.7009842400617798e-06
aF-7.5464399635599181e-06
aF-5.6874865980330486e-05
aF4.8806854749405464e-06
aF3.0084857226438171e-05
aF-4.8854296540174887e-06
aF-1.0500658424576887e-05
aF-2.1510495485066756e-05
aF-3.8843090598136668e-06
aF-1.0686703390270798e-05
aF-1.0532352124599681e-05
aF9.6105686427404537e-06
aF2.2903738481147987e-08
aF4.3590226054184782e-06
aF-1.0987881298170202e-05
aF-1.9118538753010897e-06
aF3.4723992753512718e-06
aF4.1399137841926204e-06
aF6.0016606808744768e-05
aF-6.0361040133113699e-06
aF-2.3658490586379645e-05
aF7.1165327590282728e-05
aF1.4463564548037615e-05
aF-4.5879297779457094e-06
aF1.013640600260798e-05
aF3.1943215101356007e-05
aF-5.7466287422516257e-05
aF-7.0701957545926474e-05
aF-4.4346819222747711e-06
aF-0.0001099505198842256
aF2.8471332840642223e-05
aF0.00010528501283142747
aF4.459061914876201e-05
aF-1.0850775056431369e-05
aF4.9894862450030236e-05
aF5.8490836699878656e-05
aF3.858716684050343e-05
aF2.4804117706627992e-05
aa(lp11
F-0.00010172018803261013
aF9.439430551260277e-05
aF-4.2208736618713e-05
aF1.2398615189335807e-05
aF5.2015600060346117e-06
aF-0.00010014503599450584
aF4.720105051033269e-05
aF2.8715674704564742e-06
aF4.1540012821999239e-05
aF-2.7146766801422658e-05
aF-2.1949661185470015e-05
aF1.1813678628952267e-05
aF8.588533616870047e-05
aF5.9988244716010811e-05
aF3.1070818580083456e-05
aF9.6844062256093452e-05
aF0.00014040166150405342
aF2.7238549043412245e-05
aF2.2785748672056573e-05
aF-5.9942221457513584e-06
aF-0.00010645684019855369
aF9.0655669205206866e-05
aF-4.4480289100349408e-05
aF5.4544497564044116e-05
aF4.5000058421370216e-05
aF0.00015418860204336851
aF5.6522762641341162e-06
aF-1.1525194574735834e-05
aF-8.6861341241773209e-05
aF7.4539584265427972e-06
aF4.5946676176070841e-05
aF-7.4612039074878754e-06
aF-1.6036983278271166e-05
aF-3.285160248560727e-05
aF-5.9322565234645255e-06
aF-1.6321117842333993e-05
aF-1.6085387037039519e-05
aF1.4677606144922876e-05
aF3.4979413307300901e-08
aF6.6572561268241538e-06
aF-1.6781087577323449e-05
aF-2.9198520120358e-06
aF5.3031730833138776e-06
aF6.322625253211828e-06
aF9.165952085039825e-05
aF-9.2185551813414399e-06
aF-3.613209787253832e-05
aF0.00010868624827247824
aF2.2089276064650311e-05
aF-7.0068513950126299e-06
aF1.5480683876462893e-05
aF4.8784827171950095e-05
aF-8.7764581343036314e-05
aF-0.00010797857287227662
aF-6.7728057571625653e-06
aF-0.00016792038913422675
aF4.348244369198877e-05
aF0.00016079505893443078
aF6.8100397588665348e-05
aF-1.6571693992920583e-05
aF7.6201228763901673e-05
aF8.9329309854761774e-05
aF5.8931709265835675e-05
aF3.7881740821361028e-05
aa(lp12
F-0.00016196337169375083
aF0.0001502987782976757
aF-6.7206612865369748e-05
aF1.9741622181767922e-05
aF8.2821533555821831e-06
aF-0.00015945534511656962
aF7.5155595324791249e-05
aF4.5722364316916572e-06
aF6.6141841329429548e-05
aF-4.3224279926938832e-05
aF-3.4949219047790953e-05
aF1.8810260380546207e-05
aF0.00013675042185799465
aF9.5515930162065328e-05
aF4.9472328314039851e-05
aF0.00015419938907788833
aF0.00022355372053884797
aF4.3370419662440296e-05
aF3.628047443551301e-05
aF-9.5442649899152769e-06
aF-0.00016950527827271609
aF0.00014434595660520701
aF-7.0823478956761482e-05
aF8.6848155746448622e-05
aF7.1651078604026332e-05
aF0.00024550589560141142
aF8.9998036691618624e-06
aF-1.8350923340333525e-05
aF-0.00013830446020065274
aF1.1868521505690524e-05
aF7.3158325161684369e-05
aF-1.1880058080151352e-05
aF-2.5534792392562298e-05
aF-5.2307771023840374e-05
aF-9.4456005919350125e-06
aF-2.5987203982635213e-05
aF-2.5611862993043884e-05
aF2.3370332139599618e-05
aF5.5695765301804826e-08
aF1.0599976950334124e-05
aF-2.6719588090420094e-05
aF-4.6491172093045305e-06
aF8.4439461808082981e-06
aF1.0067162908094028e-05
aF0.00014594433348869639
aF-1.4678190319863531e-05
aF-5.7531120527704986e-05
aF0.00017305504017856642
aF3.5171520018797879e-05
aF-1.1156617961908293e-05
aF2.4649027938811977e-05
aF7.7677354408083483e-05
aF-0.00013974263894450916
aF-0.00017192824818084977
aF-1.0783960170278389e-05
aF-0.00026737025290974752
aF6.9234665468573619e-05
aF0.00025602498776709667
aF0.00010843245790706976
aF-2.6386182386037643e-05
aF0.00012133095874588558
aF0.00014223406872306165
aF9.3833667799657174e-05
aF6.0316979232180392e-05
aa(lp13
F-5.8649313866904472e-05
aF5.4425393408457837e-05
aF-2.4336500843694733e-05
aF7.1487311203278933e-06
aF2.9990892790491181e-06
aF-5.7741120635475759e-05
aF2.7214944051623564e-05
aF1.6556739141182374e-06
aF2.3950931443929564e-05
aF-1.5652146121651697e-05
aF-1.265562513240872e-05
aF6.8114713434273271e-06
aF4.9519334705790012e-05
aF3.4587720104745404e-05
aF1.7914656139062213e-05
aF5.5837861817388518e-05
aF8.0952083084493041e-05
aF1.570506546462548e-05
aF1.3137692245824653e-05
aF-3.4561184246082651e-06
aF-6.1380348924269074e-05
aF5.2269789309924587e-05
aF-2.5646221136562544e-05
aF3.1448991780477969e-05
aF2.5945907114700578e-05
aF8.8901287845060472e-05
aF3.2589609898418681e-06
aF-6.645138659929804e-06
aF-5.0082074796753893e-05
aF4.2977658197900229e-06
aF2.6491703213599084e-05
aF-4.3019433827132088e-06
aF-9.2465230742996074e-06
aF-1.8941411557275907e-05
aF-3.4203905980995936e-06
aF-9.4103479506635241e-06
aF-9.2744314698231485e-06
aF8.4627402510543574e-06
aF2.0168254007575923e-08
aF3.8384072191187028e-06
aF-9.6755549845713368e-06
aF-1.6835135719951736e-06
aF3.0576768355371497e-06
aF3.6454674348375931e-06
aF5.284858503723649e-05
aF-5.3151881321389584e-06
aF-2.0832863070572079e-05
aF6.2665769806730416e-05
aF1.2736123576502334e-05
aF-4.039975098680599e-06
aF8.9257747661057109e-06
aF2.812811002505353e-05
aF-5.060286042663468e-05
aF-6.2257741887542865e-05
aF-3.905030243200704e-06
aF-9.6818692508007651e-05
aF2.5070888455041835e-05
aF9.2710405496591625e-05
aF3.9264984364344494e-05
aF-9.5548238859478973e-06
aF4.3935720816649586e-05
aF5.1505043713705096e-05
aF3.3978548214412599e-05
aF2.1841663392762025e-05
aa(lp14
F-0.00024399308151491891
aF0.00022642071279004163
aF-0.00010124479627534486
aF2.9740176311843743e-05
aF1.2476821750961316e-05
aF-0.00024021481284411817
aF0.00011321970581754429
aF6.8879404319431597e-06
aF9.9640749104391543e-05
aF-6.5116113262812382e-05
aF-5.2649976120121944e-05
aF2.8337107003586442e-05
aF0.00020601051014600876
aF0.00014389195464560285
aF7.4528615382771137e-05
aF0.00023229686882520961
aF0.00033677714033723783
aF6.5336268499295117e-05
aF5.4655473418287751e-05
aF-1.4378156007320491e-05
aF-0.00025535474315147017
aF0.00021745296104923041
aF-0.00010669349923723521
aF0.00013083420604833714
aF0.00010794025389592822
aF0.00036984744989832533
aF1.3557940954823938e-05
aF-2.7645129189569629e-05
aF-0.00020835162344867849
aF1.7879580456469643e-05
aF0.00011021087674330335
aF-1.7896959968413534e-05
aF-3.8467417765824229e-05
aF-7.8800126879403771e-05
aF-1.4229520978009428e-05
aF-3.9148962591796845e-05
aF-3.8583522370890521e-05
aF3.5206721712055293e-05
aF8.3904041149591535e-08
aF1.5968555192772181e-05
aF-4.0252277825619444e-05
aF-7.0037590744106519e-06
aF1.2720557909211766e-05
aF1.5165886424636148e-05
aF0.00021986086906661969
aF-2.2112264333307529e-05
aF-8.6668950107455416e-05
aF0.0002607023556208524
aF5.2984866029936233e-05
aF-1.6807118593195655e-05
aF3.7133039527665719e-05
aF0.00011701866210708201
aF-0.00021051819765501384
aF-0.00025900487643852778
aF-1.6245720531526179e-05
aF-0.00040278546458161679
aF0.00010429999819510804
aF0.00038569415452916015
aF0.00016335032584409632
aF-3.975001188514035e-05
aF0.00018278154003576082
aF0.00021427146373418932
aF0.00014135767560813841
aF9.0865764750555002e-05
aa(lp15
F-0.00024115468325120864
aF0.00022378673581798555
aF-0.00010006700446185007
aF2.9394205580699003e-05
aF1.2331677515826986e-05
aF-0.00023742036759402798
aF0.00011190260856865916
aF6.8078122658444344e-06
aF9.8481617347471613e-05
aF-6.4358610379217597e-05
aF-5.2037493176442233e-05
aF2.8007458331508686e-05
aF0.00020361396729867091
aF0.00014221804376381833
aF7.3661615830219256e-05
aF0.00022959453388585399
aF0.00033285937494628731
aF6.4576204525700968e-05
aF5.4019660304696472e-05
aF-1.4210893342358253e-05
aF-0.00025238417343247999
aF0.00021492330691621738
aF-0.00010545232206489959
aF0.00012931219738737104
aF0.00010668457308997916
aF0.00036554497397109337
aF1.3400219941479118e-05
aF-2.7323530371256728e-05
aF-0.00020592784617365855
aF1.7671585337065371e-05
aF0.00010892878153286578
aF-1.7688762671241683e-05
aF-3.8019922078167783e-05
aF-7.7883436365369782e-05
aF-1.4063987400636491e-05
aF-3.8693538418469128e-05
aF-3.8134676025635995e-05
aF3.479715805902885e-05
aF8.2927976241362917e-08
aF1.5782791239746509e-05
aF-3.9784018665231589e-05
aF-6.9222835773480982e-06
aF1.2572578264630225e-05
aF1.4989460005378508e-05
aF0.00021730320347568624
aF-2.1855029938378484e-05
aF-8.5660720710231488e-05
aF0.00025766957653980226
aF5.2368487275225117e-05
aF-1.6611599540209793e-05
aF3.6701066808327913e-05
aF0.00011565737118324025
aF-0.00020806921638475239
aF-0.00025599184431888278
aF-1.6056732283732001e-05
aF-0.00039809981711891898
aF0.00010308666488277035
aF0.00038120733214984674
aF0.00016145005359713904
aF-3.9287595639496329e-05
aF0.00018065522234406809
aF0.00021177882030819697
aF0.00013971324627220363
aF8.9808713348534368e-05
aa(lp16
F-7.4387868341953224e-05
aF6.9030458029142779e-05
aF-3.0867205450568174e-05
aF9.0670944693021436e-06
aF3.8038954546331215e-06
aF-7.3235961285003068e-05
aF3.4518079438064678e-05
aF2.0999743222935397e-06
aF3.0378168429410416e-05
aF-1.9852402495427418e-05
aF-1.6051764531655943e-05
aF8.6393309674468758e-06
aF6.2807857545185738e-05
aF4.3869341340274544e-05
aF2.2722057504170097e-05
aF7.0821962602907193e-05
aF0.00010267558989968388
aF1.9919522754102735e-05
aF1.6663194446183987e-05
aF-4.383568457891797e-06
aF-7.7851777173785895e-05
aF6.6296397162839078e-05
aF-3.2528389431880072e-05
aF3.9888334676213326e-05
aF3.2908496198964367e-05
aF0.00011275796526206642
aF4.1335037881955334e-06
aF-8.4283628768557998e-06
aF-6.3521609046053367e-05
aF5.4510720908449191e-06
aF3.3600756784289386e-05
aF-5.4563707035691097e-06
aF-1.1727829291110776e-05
aF-2.4024342933165835e-05
aF-4.3382530623783483e-06
aF-1.1935616604049363e-05
aF-1.1763226909854478e-05
aF1.0733718198923685e-05
aF2.5580408787172963e-08
aF4.8684445227538909e-06
aF-1.2271991995694427e-05
aF-2.135284757630161e-06
aF3.8782049929918941e-06
aF4.623729310848794e-06
aF6.7030512833107117e-05
aF-6.7415198732508828e-06
aF-2.6423365817995536e-05
aF7.9482140993310298e-05
aF1.61538647484557e-05
aF-5.1241031809411636e-06
aF1.1321008113714264e-05
aF3.5676293673273174e-05
aF-6.4182147598266755e-05
aF-7.8964618704793085e-05
aF-4.952945847956116e-06
aF-0.00012280000696461441
aF3.1798666116396643e-05
aF0.00011758926035622786
aF4.9801750349068035e-05
aF-1.2118862683908094e-05
aF5.5725879812244834e-05
aF6.5326431941152731e-05
aF4.3096698057890539e-05
aF2.7702877897551712e-05
aa(lp17
F-0.0076313612394715256
aF0.0070817510097874901
aF-0.0031666291896338674
aF0.00093018223038170969
aF0.00039023702357011107
aF-0.0075131884908524408
aF0.0035411679263846092
aF0.00021543382011389428
aF0.0031164594744489365
aF-0.0020366339067219813
aF-0.0016467310651906029
aF0.00088629849126563884
aF0.0064433819692378382
aF0.0045005025492376744
aF0.002331028335443948
aF0.0072655392923299429
aF0.010533364303415763
aF0.0020435196926956228
aF0.0017094569189404832
aF-0.00044970497428891711
aF-0.0079867194475437744
aF0.006801267019769742
aF-0.0033370480405725622
aF0.0040920959013883412
aF0.0033760427330384573
aF0.011567702969884781
aF0.00042405114295570955
aF-0.00086465553058956228
aF-0.0065166048704950307
aF0.00055921887795483296
aF0.0034470609073216389
aF-0.0005597624562111755
aF-0.001203143790381285
aF-0.0024646282189609982
aF-0.00044505612279497502
aF-0.0012244604389337636
aF-0.0012067751891788484
aF0.001101159138505373
aF2.6242631286447586e-06
aF0.00049944782201142928
aF-0.0012589687826049648
aF-0.00021905627487140997
aF0.00039786034903156048
aF0.00047434278506835049
aF0.0068765790564800687
aF-0.00069160435165795369
aF-0.0027107410685957727
aF0.0081539764954452042
aF0.0016572054026651702
aF-0.0005256755338428398
aF0.0011614084989449395
aF0.0036599877207755907
aF-0.0065843687198550603
aF-0.0081008845112119972
aF-0.00050811671053056101
aF-0.012597903855084245
aF0.0032621866102151317
aF0.012063339677049825
aF0.0051091011981233506
aF-0.0012432594321337119
aF0.0057168504584607606
aF0.0067017594634786321
aF0.0044212380115039324
aF0.0028420046617999039
aasS'co'
p18
(lp19
(lp20
F0.0033562856215880107
aF0.0021054961440920153
aF0.0001531231870902742
aa(lp21
F0.0088279300075509107
aF0.0055380187167795936
aF0.00040275498886965544
aa(lp22
F0.0024360797931247753
aF0.001528224111241716
aF0.00011114080980777453
aa(lp23
F0.002184097232191404
aF0.001370148080104468
aF9.9644656866228697e-05
aa(lp24
F0.0021798321391937486
aF0.0013674724625101261
aF9.9450071331303797e-05
aa(lp25
F0.0039683624160268193
aF0.0024894698209119749
aF0.00018104785145901296
aa(lp26
F0.0022387946774256417
aF0.0014044613874379132
aF0.0001021401081133128
aa(lp27
F0.0021341877188114323
aF0.0013388383824735142
aF9.7367644532799817e-05
aa(lp28
F0.0044196271302621238
aF0.0027725613759559901
aF0.00020163581656562919
aa(lp29
F0.0014543960216999508
aF0.00091238516649936837
aF6.6353635906809909e-05
aa(lp30
F0.0016834060037991729
aF0.0010560498269701756
aF7.6801715208811593e-05
aa(lp31
F0.010742746120972122
aF0.006739238874421025
aF0.00049011428394661626
aa(lp32
F0.0071636640418013854
aF0.0044939759955372801
aF0.00032682649601365555
aa(lp33
F0.0024914472921312991
aF0.0015629577629060511
aF0.00011366683079197347
aa(lp34
F0.0020484293974275449
aF0.0012850396789793382
aF9.3455108780374864e-05
aa(lp35
F0.0024895321652263734
aF0.0015617563477798083
aF0.00011357945731771422
aa(lp36
F0.0032103295574823498
aF0.0020139336357629673
aF0.0001464642610539267
aa(lp37
F0.0023373018006995223
aF0.0014662577872689318
aF0.0001066342800543928
aa(lp38
F0.0068640163295712433
aF0.0043059982207530089
aF0.00031315572484749975
aa(lp39
F0.00097021864907150944
aF0.00060864653812737481
aF4.4264102782157726e-05
aa(lp40
F0.0031876316010211658
aF0.0019996945437439815
aF0.00014542871645920643
aa(lp41
F0.0049168918729572304
aF0.0030845100943854061
aF0.00022432243231112505
aa(lp42
F0.0027382904882053828
aF0.0017178097201371006
aF0.00012492851145803357
aa(lp43
F0.002474764226887412
aF0.0015524919880873932
aF0.00011290570244695191
aa(lp44
F0.0021181202961893381
aF0.001328758818279478
aF9.6634603535217066e-05
aa(lp45
F0.0029839813360930034
aF0.0018719387756438021
aF0.00013613761875971311
aa(lp46
F0.0019103224631464427
aF0.0011984011593816984
aF8.7154282116408277e-05
aa(lp47
F0.0020603531309278753
aF0.0012925197857815262
aF9.3999103029208136e-05
aa(lp48
F0.0031482957907674829
aF0.0019750180393722592
aF0.00014363410619300021
aa(lp49
F0.0067422455818999961
aF0.0042296078688604591
aF0.00030760020094993448
aa(lp50
F0.0025208041593952073
aF0.0015813741844493208
aF0.00011500617362070117
aa(lp51
F0.0027204314599389491
aF0.0017066062293166692
aF0.00012411373237341031
aa(lp52
F0.0019975038570901791
aF0.0012530925979185215
aF9.1131742440336659e-05
aa(lp53
F0.0025822430026820292
aF0.0016199165679716958
aF0.00011780918640206477
aa(lp54
F0.0026315664695689472
aF0.001650858621495293
aF0.00012005946164666479
aa(lp55
F0.0083564346757199048
aF0.0052422359035582747
aF0.00038124404610490043
aa(lp56
F0.002354229071718319
aF0.0014768767595133782
aF0.00010740654975351114
aa(lp57
F0.002155298574384905
aF0.0013520818396818429
aF9.8330781122493011e-05
aa(lp58
F0.0053530350568763759
aF0.0033581154711469006
aF0.0002442205106867672
aa(lp59
F0.0015962867145370438
aF0.0010013973485167294
aF7.2827088275080916e-05
aa(lp60
F0.0027888645625344321
aF0.0017495363162902773
aF0.0001272358429305381
aa(lp61
F0.0026722158722780579
aF0.0016763591808377904
aF0.00012191400169418018
aa(lp62
F0.0013592276155859149
aF0.00085268324160250029
aF6.2011785630197345e-05
aa(lp63
F0.0058410560315242796
aF0.0036642653034937136
aF0.00026648539974279221
aa(lp64
F0.0029301233527183755
aF0.0018381520872897293
aF0.00013368046612302064
aa(lp65
F0.0014146586369553947
aF0.00088745674270319073
aF6.4540704683203298e-05
aa(lp66
F0.011503509397638839
aF0.0072164879307247331
aF0.00052482244370369042
aa(lp67
F0.010469763623740217
aF0.0065679889689810832
aF0.00047766005486457716
aa(lp68
F0.0022751621970944188
aF0.0014272757963011765
aF0.00010379929661694693
aa(lp69
F0.0027437336081969515
aF0.0017212243485228266
aF0.00012517684189673726
aa(lp70
F0.0023442030571884198
aF0.0014705871473309306
aF0.00010694913478001875
aa(lp71
F0.0024916989782702258
aF0.0015631156529829931
aF0.00011367831342130961
aa(lp72
F0.0035179549664205181
aF0.0022069160530453153
aF0.00016049899717518503
aa(lp73
F0.0043942113984094099
aF0.0027566173439370922
aF0.00020047627941584454
aa(lp74
F0.0032352939018099459
aF0.0020295944991839624
aF0.00014760320463562697
aa(lp75
F0.0046206653922100174
aF0.0028986785581837575
aF0.00021080774734486536
aa(lp76
F0.005935063157712194
aF0.0037232387235246866
aF0.0002707742691639472
aa(lp77
F0.010397384761049318
aF0.0065225835912834157
aF0.00047435792763740863
aa(lp78
F0.0027810674164870787
aF0.0017446449385028716
aF0.00012688011520423865
aa(lp79
F0.0025640141504649681
aF0.0016084810757694302
aF0.0001169775349089617
aa(lp80
F0.0070063033997870153
aF0.0043952590618943268
aF0.00031964726106629987
aa(lp81
F0.0025297063462240916
aF0.0015869587866421864
aF0.00011541231641455162
aa(lp82
F0.0052179767559983378
aF0.0032733894484576333
aF0.00023805877125064096
aa(lp83
F0.002860190236481412
aF0.0017942809978823866
aF0.00013048992072590634
aasS'no'
p84
I3
sS'ai'
p85
(lp86
F0.028852426184481399
aF0.0087276836804760904
aF0.013329232471198584
aF0.02122339208056764
aF0.0076853017471580154
aF0.031972419317921781
aF0.031600480659189537
aF0.0097476539253833847
aF1.0
asS'ah'
p87
(lp88
F0.027075155765398415
aF0.071214910466227146
aF0.019651855441488165
aF0.017619112148261826
aF0.017584705643486825
aF0.032012779203410668
aF0.018060356433361031
aF0.017216492108940322
aF0.035653131606901277
aF0.011732612558007035
aF0.013580036060132522
aF0.086661731856965754
aF0.057789277091079665
aF0.020098505050299732
aF0.016524679739125012
aF0.020083055721753961
aF0.025897728211215623
aF0.018855013386716416
aF0.055372019027227
aF0.0078267537426318836
aF0.025714623798769338
aF0.039664566235263023
aF0.022089789087732882
aF0.019963922764686975
aF0.017086876212294475
aF0.024071777132463924
aF0.015410571114432555
aF0.016620868496050233
aF0.02539730182148401
aF0.05438969441824211
aF0.020335326895509188
aF0.021945720308537753
aF0.016113863410442329
aF0.020830954038007731
aF0.021228846440329831
aF0.067411357672665262
aF0.018991565680290343
aF0.017386793378688085
aF0.043182933255242827
aF0.01287724476258291
aF0.022497770140162493
aF0.021556765167818476
aF0.010964889035637963
aF0.047119798407715088
aF0.023637304786100169
aF0.011412051079344988
aF0.092798809131873161
aF0.084459582079771223
aF0.018353733210802112
aF0.022133698736147057
aF0.018910685822105113
aF0.020100535402356661
aF0.028379342353594381
aF0.035448102900650036
aF0.026099115574347995
aF0.037274907245432538
aF0.047878153885039146
aF0.083875701801861116
aF0.022434870563797546
aF0.02068390188904079
aF0.056519848808076055
aF0.020407140835745505
aF0.042093417955900464
aF0.023073154344583326
asS'ao'
p89
(lp90
F0.50411906088461822
aF0.65559018254185109
aF0.92166639352080826
asS'wo'
p91
(lp92
(lp93
F-0.89896731585733536
aF-2.2216448362982772
aF-0.86940245829849483
aa(lp94
F0.073140615270274462
aF1.0270689416462031
aF3.4759309967642853
aa(lp95
F-0.87113375276241878
aF-0.76809760432382057
aF0.66729387640523352
aa(lp96
F-0.10191489432517098
aF1.0232727385701814
aF-2.2671972027013658
aa(lp97
F0.664766060450246
aF-0.80655570878011462
aF0.58043969698840703
aa(lp98
F-0.72762250978557252
aF-2.0136701867206566
aF0.88815266080378052
aa(lp99
F-0.28782033021347658
aF3.2207502777894104
aF-2.6018169735362573
aa(lp100
F0.17040161958036895
aF0.0162722843705248
aF-1.6420640755436735
aa(lp101
F0.74112602992663978
aF-0.2029902907993166
aF2.7091557509382076
aa(lp102
F-1.2812195488268527
aF-0.17621340582747566
aF-0.50760800677349927
aa(lp103
F-0.48393264030051264
aF-0.75471896914115877
aF-0.70005959640259419
aa(lp104
F-1.0358223961570203
aF1.5409755063625576
aF3.8239977352231387
aa(lp105
F0.37496795360886692
aF0.69239085704252279
aF3.4039461647076688
aa(lp106
F1.6522083683647542
aF0.30796273573301469
aF0.033050004081163591
aa(lp107
F0.90155488376004744
aF0.47253952701001933
aF-0.83406388153633193
aa(lp108
F1.0085443362663267
aF3.2928770468273991
aF-2.0283491457979763
aa(lp109
F1.6491637676667863
aF2.816211501223953
aF-0.94379126137898761
aa(lp110
F-0.32204152238245987
aF2.1182944567329738
aF-2.4648375066358117
aa(lp111
F0.010831883107338547
aF0.1932134864389207
aF3.0947837137505281
aa(lp112
F-0.44435096153171028
aF0.035405036372806627
aF-0.95718326422362321
aa(lp113
F-1.2101839408009081
aF-2.0569852453891548
aF-1.4601325666446565
aa(lp114
F0.93647033040475403
aF0.59755374220164204
aF2.9789654029835768
aa(lp115
F-0.35455675963702438
aF-1.4905954647042192
aF1.0365157490033348
aa(lp116
F1.5948745164584213
aF0.14127247795531156
aF0.15716328172390515
aa(lp117
F1.4678167448750759
aF0.27441384960371257
aF-0.3378172213400874
aa(lp118
F1.3663674557860048
aF4.2750548470760759
aF-1.5749088377413925
aa(lp119
F0.31869934226483443
aF-0.086326893908200419
aF-0.79832776513823311
aa(lp120
F0.060063995156067966
aF-0.80519037955380779
aF0.46418541541570801
aa(lp121
F-1.0590675618715966
aF-1.5578808489461655
aF-1.8203504142552649
aa(lp122
F-0.015534583293628973
aF-0.077454170946170756
aF3.5345528740733787
aa(lp123
F1.2473350100662357
aF0.30877125250996784
aF-0.91371173463182198
aa(lp124
F-0.59669646388607478
aF0.82723346733495906
aF-2.8238018077585894
aa(lp125
F-0.1455335987355672
aF-0.68769219387662528
aF-0.71135980613694394
aa(lp126
F-0.98873133578884109
aF0.29489406621122688
aF-3.669511175766528
aa(lp127
F-0.43128871729453377
aF0.59138618863202408
aF-2.3851829133431002
aa(lp128
F-0.67592312620625061
aF0.59263379817543749
aF3.4785727071411934
aa(lp129
F0.16068733406117625
aF-0.95979542623933289
aF-1.7055625634751392
aa(lp130
F0.75444297983666953
aF-0.41133516986807922
aF0.58213462586048326
aa(lp131
F0.37020324164861507
aF-0.79078315134281385
aF2.9342630556165097
aa(lp132
F0.42881587546404953
aF-0.17061227870509582
aF-0.056837594945206106
aa(lp133
F-0.09565900103406888
aF-0.40181954238243633
aF-2.4151949119734404
aa(lp134
F0.59405811081253967
aF-0.95824329003165909
aF-1.5994690580778532
aa(lp135
F0.20213796963309438
aF0.18805748572334965
aF-0.48785422990317201
aa(lp136
F0.28727236145017204
aF-0.49713142659914361
aF2.5859246806808422
aa(lp137
F2.0592033509009338
aF0.60942708244845956
aF-0.73978348048844267
aa(lp138
F-0.28779787084577996
aF-0.30041466776074399
aF-0.35715647286422697
aa(lp139
F-1.4501385889697878
aF1.6640315063071702
aF3.5633499075314754
aa(lp140
F-0.39379815080605096
aF1.7402772031063261
aF3.6680331712627137
aa(lp141
F0.2238679655663568
aF0.97053805429766615
aF-1.918518698904075
aa(lp142
F-0.48171025975316484
aF0.65742106380374554
aF-2.6917182282179124
aa(lp143
F-0.61191514195155983
aF1.9707860257276832
aF-2.5459570926671673
aa(lp144
F2.0505091139640954
aF-0.92574933487403044
aF0.71726267782371944
aa(lp145
F-0.65493201294055592
aF-2.0134255311006943
aF-0.074157177471840724
aa(lp146
F-0.57461278666184368
aF-2.238000306522459
aF1.6095689482013009
aa(lp147
F0.85134669823349141
aF-1.7097337620998609
aF1.4132519144180624
aa(lp148
F-1.2526478585126881
aF-2.5665966677991281
aF0.81591680620068097
aa(lp149
F0.24573721070753896
aF0.28802369801331534
aF3.4884398461258073
aa(lp150
F-0.089548053904004596
aF1.9154353633691186
aF3.7021536041598111
aa(lp151
F1.3942982710322633
aF0.9066385020481027
aF-1.7516228857259708
aa(lp152
F0.39554376630269583
aF-1.4650241342694621
aF0.7005762568334144
aa(lp153
F0.37567831511686373
aF0.55175123868635645
aF3.3495069396726191
aa(lp154
F0.76184203437792619
aF3.2443197042092269
aF-1.95413750494727
aa(lp155
F0.79438477563209342
aF-0.054355956805394741
aF2.8832867390380832
aa(lp156
F1.0441271643861243
aF0.059621340160733151
aF-1.3244421513637965
aasS'wi'
p157
(lp158
(lp159
F-2.6015536070944503
aF1.2185159995932431
aF-1.7860831087297895
aF1.7833688782839681
aF-1.3879255422533709
aF-1.6976496204989688
aF-0.38923209156678901
aF-0.53652277669043535
aF-1.7957448146735042
aF1.0882918645625506
aF1.2896139939724747
aF-2.1922503125112009
aF0.30588279975894361
aF0.31925642686604533
aF-0.57907226983812576
aF-0.074284472974578727
aF2.6945925120783638
aF0.19993587231265397
aF-1.415236201158359
aF-1.8310439060713275
aF0.01459835151378623
aF0.52140207771673508
aF0.31974098201379142
aF1.01496822948835
aF2.1550053709411645
aF2.4083694908770013
aF-1.2162387060941937
aF-1.4913694527585775
aF-0.66046624436055545
aF0.63768915120374969
aF0.28440910792278079
aF-0.072321872654499006
aF1.4852766460381948
aF-1.9450868231840071
aF-0.41964607278493049
aF-1.1765206701149493
aF-1.5298978992850707
aF1.1797830017893249
aF-0.3303101928374636
aF-1.4494112718881331
aF-0.29477627022751912
aF1.2127450231944856
aF-1.1159147787941566
aF-1.8275536711461733
aF0.66816376633496288
aF-0.77132273267180873
aF-1.8147292107153663
aF-0.3868851405891176
aF-1.5719300092956239
aF1.5974610809638541
aF0.8079278566998328
aF1.4971193889544607
aF-1.636702699382599
aF-1.3554204557078908
aF0.50874339750286979
aF-2.5796037854066651
aF-0.033671716641163897
aF-0.60383919937075647
aF2.0180979322288026
aF-2.0731454739124859
aF1.707867984233445
aF1.7223703004670778
aF-1.6207080092946038
aF-0.61027758904401053
aa(lp160
F1.1326143938280124
aF0.012977073123740319
aF0.039157850430820235
aF0.10120682557236997
aF0.4828167384919208
aF0.18610623291608183
aF-0.55547474711348521
aF-1.6454025238725534
aF1.6864800891688743
aF0.98808861875019627
aF0.42118876956212936
aF2.6475744737606375
aF1.2416779317131088
aF-0.081348443420371036
aF0.35041393643784008
aF-2.0160971611020062
aF-1.0282330676313851
aF0.59658273033150588
aF2.4856468713309505
aF-1.3175901044727909
aF-1.9944887375793496
aF0.046388173014712021
aF0.43009417873577205
aF0.66159005241108393
aF1.6496615380175168
aF-3.34235307236988
aF-1.9538546318332599
aF0.13974023431569482
aF-0.49186514428735834
aF0.20086408043338214
aF1.5211545405669791
aF0.58029753944950213
aF-0.38382548395083765
aF-1.9552124717448767
aF-0.50154535331558592
aF2.0844486993759892
aF0.45815185986715812
aF-1.2270219981411861
aF2.5025235602154008
aF1.8460729186636755
aF-0.69340685687543069
aF-1.9871642715568125
aF0.96533854612140679
aF2.1431935011696992
aF0.47799932162315534
aF1.7152767840277221
aF1.3454687719517811
aF0.20636923987840208
aF-1.0904864222083339
aF-2.1705034165735109
aF1.1520378494546779
aF0.91650567402914473
aF-1.2858986444916365
aF0.77098301274829895
aF0.46497844488570378
aF-1.6678100121204267
aF0.099127085290346292
aF2.1212625915433874
aF-0.64316826030349017
aF0.83998845189889904
aF0.51117075725867489
aF-1.3686982985621383
aF-0.44984734941669663
aF-1.5398479551240871
aa(lp161
F-1.2339792765887836
aF2.0354019793716009
aF0.59696126745699796
aF-2.529876339457299
aF1.3180973239894003
aF0.79028785269250734
aF-2.4066017436199449
aF1.3905442833741639
aF1.986895949631712
aF0.82258951124212298
aF0.30891111098491258
aF3.5279496049831329
aF1.7198177741323764
aF0.1894967849010557
aF-0.81725323728424371
aF-2.4581346004991156
aF-1.7139614248603097
aF0.72226357472215486
aF0.78388965840822855
aF-0.33264900049906543
aF1.0726411546766985
aF2.7363880841537136
aF-0.97749634759189286
aF-0.61500336966906533
aF-2.1274769751140159
aF-2.3206224880792372
aF-2.1851056103422852
aF-0.80046308641796071
aF1.6661528560006897
aF-0.39130315534497578
aF-1.4058704267642677
aF-1.6657558457922905
aF1.7896732949455532
aF0.27139402154717424
aF0.58498555020899323
aF3.1522633745787934
aF-2.0682404248940132
aF-0.58428668033075992
aF1.3526110930120714
aF0.97476032886225894
aF1.0132039433454492
aF-0.825970459378083
aF-0.36123383909285334
aF2.3273651738712422
aF-0.87590324869975622
aF0.89154496183152243
aF3.2262738109891682
aF2.8708103979654069
aF-0.42785569514594396
aF1.3140584728543296
aF-1.6297397455066134
aF0.39802013762879468
aF1.6006669295747871
aF-0.18837712190175204
aF0.80746339759992869
aF1.7985049303970801
aF1.723636845225148
aF3.7668883719215978
aF-0.69231504707370706
aF2.1466452780726981
aF2.9448228940149193
aF-1.6101801711135655
aF1.856755649467277
aF0.3146382206115681
aa(lp162
F-3.3696014602503785
aF-3.0841399627228672
aF-1.7931333812798944
aF0.66416043705120598
aF0.42137211347519032
aF-2.5342598387735435
aF4.5459183846279725
aF1.6184075661658714
aF0.099731236391600864
aF-1.4237587539019632
aF-0.27106833186241219
aF-4.7609945647127505
aF-2.2377664839677744
aF2.7172300612720002
aF2.3773146504381502
aF5.5589526612128708
aF5.755275348593246
aF2.793556009175592
aF-1.2725088793886299
aF-1.3803741877053111
aF-3.4531277134093723
aF0.29584870743015462
aF-2.1283127204003986
aF2.2204361797331917
aF1.4778154157546051
aF8.0674939401851304
aF1.0318770183585908
aF0.16876308301954987
aF-2.8810699310689052
aF-3.5198963336630436
aF2.3530095207566721
aF-1.6678209612079002
aF-0.12123272444456552
aF-2.692650781474744
aF0.86225139881170565
aF-3.4105195332069345
aF-0.11932172312860717
aF-0.098026461714654053
aF-2.1258734719082097
aF1.4162764945235558
aF-0.46343653825611136
aF-0.56733828716823653
aF1.0351890159555779
aF-0.5823187105468971
aF3.3330303960684344
aF0.30622228647533822
aF-4.5735164774385613
aF-3.573705833441073
aF2.2861724836953257
aF-1.2037174363073204
aF1.5339871552121409
aF1.9095165925779718
aF-1.8435345462025794
aF-3.2419548316385858
aF-0.84391909936047782
aF-3.5532246380981722
aF-2.0677439746889608
aF-2.6913120818684759
aF2.2058223504453376
aF0.53320438482427024
aF-2.6391830845431481
aF5.516273133706548
aF-0.30482337035304713
aF2.391532227083645
aa(lp163
F-1.23344703786078
aF-0.40285391850348395
aF-0.98774565437222994
aF-2.2843387650393066
aF-0.59980606307149986
aF-1.5791170931182781
aF-2.5393219865845236
aF1.226294044615152
aF-0.89523602863740159
aF0.40662978745404049
aF-1.2526602477286821
aF0.90763632936984062
aF1.1485593520356148
aF-0.080271179772151452
aF-0.7141646428354339
aF-1.2457046171001458
aF-0.83596586037862075
aF-0.48525612482914704
aF-1.2062915261354448
aF1.6152302522319693
aF0.95683176193419284
aF-0.028383858049696811
aF0.16636661634978331
aF0.40758489935106001
aF1.5165719883016133
aF0.042206256704282165
aF-0.39280951228287214
aF-0.15457195417239464
aF-1.5827868669590857
aF-0.19353643203935719
aF-0.09552684541370414
aF1.4275565281941054
aF-1.4758736704041677
aF1.1705468186135637
aF-1.3279695370275153
aF-1.180007135044904
aF-1.014715653281556
aF-1.846536765792552
aF1.9190382720017358
aF-0.3093646528710865
aF0.79978795026295701
aF-0.34278172492536518
aF-1.8916927548489788
aF1.4147956397854187
aF-0.79073415080679588
aF0.63143316471862942
aF-1.7081463198243148
aF-1.7955347008431499
aF-1.631104606896379
aF-1.518118036193888
aF0.33167163325068194
aF1.8229466579310278
aF1.5170508347988885
aF-0.066268318941645463
aF2.0398186563346221
aF1.1162080887217305
aF1.8243244209965901
aF0.098538840401974637
aF-0.22945438679926819
aF0.27942901828329852
aF0.18406109463187131
aF-0.58362261052875719
aF-1.2542707013338172
aF0.91993005396914307
aa(lp164
F0.30912169715599142
aF-0.34104677932277255
aF-0.51805904312906004
aF1.5235371459423741
aF0.8092732528441221
aF-1.1448728053359307
aF1.7949763075412024
aF0.0597001538221235
aF-1.4933734718602629
aF1.5749023272698128
aF1.1899551869929268
aF0.18480484429958524
aF-0.74692364202830408
aF-0.42023512534927177
aF1.5305170131138686
aF-0.66732816119086247
aF0.062719187601048373
aF-0.047800856777554697
aF0.74350297039239865
aF-0.39909513047417533
aF1.6985319925043771
aF-0.81066256224010214
aF1.7033643371535159
aF1.1739749320374824
aF0.76939162152421814
aF-1.2386640925868353
aF1.5758273658733528
aF0.11738055521499155
aF0.17155425157433374
aF-0.18671492400486603
aF-0.87013924220189054
aF-1.0788733267155191
aF1.8199590189730377
aF1.0855205649827568
aF-0.82492849277484959
aF0.4514814517476598
aF-1.6510236913685419
aF0.24899885051382928
aF-0.69834924363849482
aF1.105187048536719
aF-1.7749780733512832
aF-1.3488664198897056
aF0.69444361042154112
aF-0.84671307072293045
aF1.4889840885139398
aF1.4082538820607793
aF1.7252439550691856
aF-1.8169078177318738
aF-1.6847048808025211
aF-1.1858569658910112
aF1.8794045633466581
aF0.67409320194448652
aF-0.42173296196334376
aF0.16947610855473966
aF0.22285530477851487
aF1.8972872436800208
aF1.061509167390156
aF-1.7418984368615267
aF-1.9122500212558033
aF-1.3253136335218849
aF-2.0207406979994285
aF0.54280287655644532
aF-0.19403777306552189
aF0.21992466125730911
aa(lp165
F-0.50143226952018105
aF-3.9736941879178995
aF-1.2028359687727417
aF1.0095368112038055
aF-2.1596100878385522
aF0.21356368933546932
aF4.1156693892334593
aF0.30642379453102875
aF-1.2512738437667168
aF1.1375601228900574
aF-0.31796495893472365
aF-2.5556721055733469
aF-3.8599697056075399
aF-0.59569472761914788
aF0.11686216427889572
aF0.35807866411338446
aF0.75131071480958012
aF3.5713565205934508
aF-1.4239893664475809
aF-0.043713263385169746
aF1.3358186921221247
aF-2.6896180321633563
aF-0.89190383393782902
aF-1.7272305551347433
aF-0.94163220743018861
aF3.7243908618622239
aF-0.0072448645274117004
aF-1.4164837312842216
aF2.2276391582589037
aF-1.1591685050343108
aF0.93507537853639877
aF2.8978129589935882
aF-0.73578476944962723
aF2.5007248801539519
aF3.0464458241514136
aF-0.45930216660779732
aF1.113433519717127
aF-2.0445762884851186
aF-1.5059246340862047
aF0.77387268613367466
aF2.510560080384705
aF-0.31456721966923124
aF-0.077300255251557023
aF-1.5353349617442065
aF-1.4274343553577131
aF0.67882809945874278
aF-0.19229304446967466
aF-3.7536718040653674
aF1.5246153169658072
aF2.3639100735912795
aF3.6709691880869078
aF-1.4329862651156939
aF-0.31394188527695938
aF0.7558597611387865
aF-2.8117842559677069
aF1.1428453327030006
aF-2.8738025712756552
aF-4.3994137399413962
aF-0.064316786029247827
aF-0.60892670395681658
aF-3.1521730367490663
aF2.0803262478737663
aF-3.6406705686283471
aF-1.3446435113504169
aa(lp166
F-2.0995555771045518
aF3.7655606503967145
aF-0.39153720766838723
aF-1.6452766095650013
aF-0.78242824600579464
aF-0.088516755643754108
aF-1.996666076157926
aF-0.5282617189597999
aF3.1251605470123303
aF0.37399374932133489
aF-0.18493599994933804
aF2.2556059766188401
aF3.1906858228021719
aF2.0624106912856228
aF0.42299077084678449
aF-2.8567867767553108
aF-1.7300938220910655
aF-3.0939035567226978
aF3.7274471219222338
aF0.17459694497875958
aF0.38593468175888734
aF4.0426053246805145
aF-1.2448600201924669
aF0.61505273458335952
aF-0.31750807954218013
aF-0.4122507765090288
aF1.7752624455753285
aF0.66309031908128613
aF-1.3637954794545455
aF3.0938349210048521
aF1.3301962251538526
aF-2.3879993250020877
aF-1.395565250181714
aF-2.8396126716721177
aF-0.25767758863477852
aF1.7907111266670788
aF0.37110927977035474
aF1.6222272024273481
aF1.0062181531042278
aF0.32264167500447893
aF-0.45089701601559262
aF-1.2053980562618223
aF1.5376103254867739
aF2.845322183438737
aF-0.69059517767263523
aF1.5700324807743313
aF4.6644631188607679
aF4.7829296320399104
aF-0.33022765717545455
aF-2.4935944992975769
aF-2.8236595935171187
aF0.73899894419685286
aF-0.052154297133221048
aF0.18520333784341345
aF-0.98475882636685819
aF-0.22237773014176107
aF3.0769623599185389
aF5.1496840361701457
aF-0.429006993577081
aF-0.41837555589286668
aF2.5738500545504204
aF-2.8246499302830101
aF2.4004070962341419
aF-1.3714891622735677
aa(lp167
F-3.4003221586916452
aF-2.4551494705672821
aF-3.7656478787387297
aF-4.0997919832476324
aF-3.9586684550418392
aF-3.2831797917076249
aF-4.1890434274159443
aF-4.0832149109723659
aF-3.2222903569668331
aF-4.549470257593371
aF-4.3429542255701952
aF-2.2141549257915387
aF-2.6741243786330426
aF-3.9382108512653615
aF-4.161070427149931
aF-3.8983291616344471
aF-3.7873176221680693
aF-4.1072192422472531
aF-2.8051433984051579
aF-4.744716097782379
aF-3.6743374105644979
aF-3.166475002770162
aF-3.7638588803159139
aF-3.9556216477807324
aF-4.1318053453543966
aF-3.9457357913331674
aF-4.1618156822313708
aF-3.9965750154897517
aF-3.6420765848651628
aF-2.781402079621484
aF-3.93803209361079
aF-3.7877051617434989
aF-4.1838175827396835
aF-3.8210740078510383
aF-3.8981730533123398
aF-2.5905752238418027
aF-3.853774383522778
aF-3.991834972425413
aF-3.0380328272214592
aF-4.4167330634873228
aF-3.7862997906637337
aF-3.742641465909331
aF-4.5152258201481281
aF-2.953983778087597
aF-3.7863082975772313
aF-4.5600350420937144
aF-2.2694051919130671
aF-2.1842318014955668
aF-3.944239206355781
aF-3.8087276810971962
aF-4.1430851381477041
aF-3.9775394173370104
aF-3.4514380279523302
aF-3.238651425814238
aF-3.5558607629268897
aF-3.2268908781446943
aF-2.9528838173556946
aF-2.2291331865611821
aF-3.7904024977600708
aF-3.7826496817370159
aF-2.7085100965174824
aF-4.0489566461832691
aF-2.9805231536081882
aF-3.7250334244825685
aasS'trainingIterations'
p168
I925
sbp169
.