(i__main__
ArtificialStupidity
p0
(dp1
S'wordPairs'
p2
(dp3
S'aided'
p4
(dp5
S'them,'
p6
I1
ssS'limited'
p7
(dp8
S'military'
p9
I1
sNI1
ssS'united,'
p10
(dp11
S'stable'
p12
I1
ssS'1373,'
p13
(dp14
S'iraq'
p15
I1
ssS'four'
p16
(dp17
S'years'
p18
I3
sS'with'
p19
I1
sS'times'
p20
I2
ssS'facilities'
p21
(dp22
S'to'
p23
I1
sS'at'
p24
I1
sS'capable'
p25
I1
sS'that'
p26
I2
sNI2
sS'across'
p27
I1
sS'shows'
p28
I1
ssS'appetite'
p29
(dp30
S'for'
p31
I1
ssS'hate'
p32
(dp33
g23
I1
sS'america'
p34
I1
ssS'agreements,'
p35
(dp36
S'he'
p37
I1
ssS'aggression'
p38
(dp39
NI2
sS'was'
p40
I1
sS'against'
p41
I1
sS'in'
p42
I1
ssS'consider'
p43
(dp44
S'the'
p45
I3
ssS'whose'
p46
(dp47
S'terror'
p48
I1
sS'consequences'
p49
I1
sS'threats'
p50
I1
sS'outlines'
p51
I1
sS'fate'
p52
I2
ssS'up,'
p53
(dp54
S'it'
p55
I1
ssS'feeding'
p56
(dp57
g45
I1
ssS'bureaucrats'
p58
(dp59
S'and'
p60
I1
ssS'contained'
p61
(dp62
NI2
ssS'voted'
p63
(dp64
S'overwhelmingly'
p65
I1
ssS'under'
p66
(dp67
S'300'
p68
I1
sg45
I2
sS'UN'
p69
I1
sS'my'
p70
I1
sS'resolutions'
p71
I1
ssS'gracious'
p72
(dp73
g60
I1
ssS'worth'
p74
(dp75
S'your'
p76
I1
ssS'placed'
p77
(dp78
S'iraqi'
p79
I1
sNI1
ssS'u2'
p80
(dp81
S'surveillance'
p82
I1
ssS'risk'
p83
(dp84
S'we'
p85
I1
sS'is'
p86
I1
ssS'compassion'
p87
(dp88
S'of'
p89
I1
sS'every'
p90
I1
sg26
I2
ssS'regional'
p91
(dp92
S'conflicts'
p93
I1
ssS'misunderstanding'
p94
(dp95
S'if'
p96
I1
ssg90
(dp97
S'life'
p98
I3
sS'pledge'
p99
I1
sS'danger'
p100
I1
sS'measure'
p101
I2
sS'person,'
p102
I1
sS'nation'
p103
I2
sS'year,'
p104
I1
sS'reason'
p105
I1
sS'aspect'
p106
I1
sS'child'
p107
I1
sS'one'
p108
I2
sS'effort'
p109
I1
sS'classroom,'
p110
I1
sS'man'
p111
I1
sS'enemy'
p112
I1
sS'school'
p113
I1
sS'land'
p114
I1
sS'step'
p115
I1
sS'day'
p116
I1
sS'member'
p117
I1
sS'person'
p118
I2
sS'chemical'
p119
I1
sS'way'
p120
I1
sS'test'
p121
I1
sS'threat,'
p122
I1
sS'precaution'
p123
I1
ssS'weaponsrelated'
p124
(dp125
S'facilities,'
p126
I1
ssS'reforms'
p127
(dp128
S'throughout'
p129
I1
ssS'today,'
p130
(dp131
S'on'
p132
I1
sg85
I2
sS'no'
p133
I1
sg23
I1
sS'these'
p134
I1
sS"it's"
p135
I1
sg45
I1
sg15
I1
ssS'bringing'
p136
(dp137
S'companionship'
p138
I1
ssS'vast'
p139
(dp140
S'oceans'
p141
I1
ssS'29,'
p142
(dp143
S'2001you'
p144
I1
ssS'receiving'
p145
(dp146
g45
I1
ssS'prize'
p147
(dp148
g86
I1
ssS'supports'
p149
(dp150
g48
I1
sS'their'
p151
I1
sS'political'
p152
I1
ssS'responders'
p153
(dp154
g41
I1
ssS'companies'
p155
(dp156
g23
I1
ssS'sanlime,'
p157
(dp158
S'riceking'
p159
I1
ssS'announced'
p160
(dp161
g151
I1
sS'they'
p162
I1
sS'thursday'
p163
I1
ssS'intentions,'
p164
(dp165
S'politely'
p166
I1
ssS'safer,'
p167
(dp168
g85
I1
ssS'inaction'
p169
(dp170
S'would'
p171
I1
ssS'triumph'
p172
(dp173
g89
I1
sg42
I1
ssS'whirlwind'
p174
(dp175
g89
I1
ssS'charter'
p176
(dp177
g60
I1
ssS'force'
p178
(dp179
g60
I2
sg89
I1
sNI1
sg41
I1
sg42
I2
ssS'leaders'
p180
(dp181
g89
I2
sS'who'
p182
I1
ssS'tired'
p183
(dp184
g89
I3
ssS'me,'
p185
(dp186
S'as'
p187
I1
sS'because'
p188
I4
ssS'direct'
p189
(dp190
S'violation'
p191
I1
sS'violence'
p192
I1
ssS'1997,'
p193
(dp194
S'citing'
p195
I1
ssS'surrounding'
p196
(dp197
g76
I1
ssS'second'
p198
(dp199
S'world'
p200
I1
sS'goal'
p201
I1
ssS'others,'
p202
(dp203
S'again'
p204
I1
ssS'mentors,'
p205
(dp206
g60
I1
ssS'even'
p207
(dp208
S'selected'
p209
I1
sS'greater'
p210
I1
sS'when'
p211
I1
sS'within'
p212
I1
sS'stronger'
p213
I1
sS'while'
p214
I1
sS'better'
p215
I1
sg23
I1
sg187
I1
sS'exist'
p216
I1
sS'cruise'
p217
I1
sS'more,'
p218
I1
sS'more'
p219
I1
ssS'century,'
p220
(dp221
S'small'
p222
I1
sg211
I1
sg45
I2
sS'some'
p223
I1
ssS'deliberate'
p224
(dp225
S'deception'
p226
I1
ssS'ruthless'
p227
(dp228
g60
I1
ssS'integrity'
p229
(dp230
g42
I1
ssg209
(dp231
g9
I1
sS'targets'
p232
I1
ssS'liberty'
p233
(dp234
g60
I2
sg85
I1
sg31
I1
sg42
I2
sg89
I1
sg86
I1
sNI1
sg41
I1
ssS'achille'
p235
(dp236
S'lauro'
p237
I1
ssS'above'
p238
(dp239
g60
I1
sS'all,'
p240
I1
ssS'conduct'
p241
(dp242
S'a'
p243
I1
sg89
I1
sS'terrorist'
p244
I1
sS'abroad'
p245
I1
sS'were'
p246
I1
ssS'new'
p247
(dp248
g60
I1
sS'resources,'
p249
I1
sg50
I1
sS'congress'
p250
I1
sS'power'
p251
I1
sS'drugs'
p252
I1
sS'national'
p253
I1
sS'600million'
p254
I1
sS'money,'
p255
I1
sS'inspections,'
p256
I1
sS'weapons'
p257
I1
sS'york'
p258
I3
sS'bases'
p259
I1
sS'era'
p260
I1
sS'aids'
p261
I1
sS'openness'
p262
I1
sg15
I1
sS'resolution'
p263
I1
sS"america's"
p264
I1
sS'hope'
p265
I1
sS'volunteers'
p266
I1
ssS'increasing'
p267
(dp268
S'his'
p269
I1
ssS'ever'
p270
(dp271
S'closer'
p272
I1
sg23
I1
sS'devised'
p273
I1
sS'known'
p274
I1
sS'dreamed'
p275
I1
sS'been'
p276
I1
ssS'seeks'
p277
(dp278
g243
I1
sg23
I1
ssS'crunch'
p279
(dp280
S'really'
p281
I1
ssS'friendship,'
p282
(dp283
S'ambition,'
p284
I1
ssS'never'
p285
(dp286
g243
I1
sg204
I1
sS'comes'
p287
I1
sS'done'
p288
I1
sS'forget'
p289
I1
sS'before'
p290
I1
sS'think'
p291
I1
sg276
I1
sS'permitted'
p292
I1
ssS'here'
p293
(dp294
S'tonight'
p295
I1
sg23
I1
sS'have'
p296
I1
ssS'hundreds'
p297
(dp298
g89
I4
ssS'reported'
p299
(dp300
S'numerous'
p301
I1
sg26
I1
ssS'108'
p302
(dp303
g69
I1
ssS'protection'
p304
(dp305
g89
I1
ssS'pursuit'
p306
(dp307
g89
I1
ssS'represented'
p308
(dp309
g293
I1
ssS"aren't"
p310
(dp311
S'required'
p312
I1
ssS'shock,'
p313
(dp314
S'starvation,'
p315
I1
sS'burning'
p316
I1
ssS'kids'
p317
(dp318
S'through?'
p319
I3
ssS'employees'
p320
(dp321
S'all'
p322
I1
ssS'vulnerability'
p323
(dp324
g207
I1
ssS'reports'
p325
(dp326
g89
I1
ssS'credit'
p327
(dp328
g23
I1
ssS"i'd"
p329
(dp330
S'be'
p331
I1
ssS'permit'
p332
(dp333
g45
I1
sg133
I1
ssg9
(dp334
g60
I3
sS'operations'
p335
I1
sg85
I1
sS'conflict,'
p336
I1
sS'importance'
p337
I1
sg86
I1
sS'strikes'
p338
I2
sS'campaign,'
p339
I1
sg21
I1
sS'are'
p340
I1
sS'industries'
p341
I1
sNI1
sS'action'
p342
I2
sg243
I1
sS'strength'
p343
I1
sS'action,'
p344
I2
sS'base,'
p345
I1
sg23
I1
sS'materials'
p346
I1
sS'units'
p347
I1
sS'has'
p348
I1
sS'conflict'
p349
I1
ssS"i'm"
p350
(dp351
S'less,'
p352
I3
sS'honored'
p353
I1
sg31
I4
sS'for,'
p354
I5
sS'convinced'
p355
I1
sS'confident'
p356
I1
sS'basically'
p357
I1
sS'proposing'
p358
I1
sS'not'
p359
I1
sS'talking'
p360
I6
sg45
I4
sS'come'
p361
I1
sS'smart'
p362
I3
sg219
I3
ssS'suitable'
p363
(dp364
g31
I1
ssS'pledged'
p365
(dp366
g23
I1
ssS'fantastic'
p367
(dp368
S'role'
p369
I1
ssS'secure'
p370
(dp371
S'our'
p372
I1
sg45
I1
sS'israel'
p373
I1
sS'nuclear'
p374
I1
sg151
I1
ssS'campaign'
p375
(dp376
g132
I1
sNI7
sg89
I1
ssS'explained'
p377
(dp378
g134
I1
ssS'highly'
p379
(dp380
S'enriched'
p381
I1
ssS'brought'
p382
(dp383
S'grief'
p384
I2
ssS'war,'
p385
(dp386
g60
I1
sg85
I1
sS'no?'
p387
I1
sS'thereby'
p388
I4
sS'international'
p389
I1
sS'win'
p390
I4
sg45
I3
sg348
I1
ssS'moral'
p391
(dp392
S'cause,'
p393
I1
sS'conviction,'
p394
I1
ssS'population,'
p395
(dp396
S'including'
p397
I1
ssS'communications,'
p398
(dp399
g60
I1
ssS'opponents'
p400
(dp401
g60
I1
sg296
I2
ssS'plot'
p402
(dp403
S'chemical,'
p404
I1
ssS'criminals'
p405
(dp406
S'will'
p407
I2
sg23
I1
ssS'spoke'
p408
(dp409
g23
I1
ssg171
(dp410
g331
I16
sS'use'
p411
I2
sS'last'
p412
I1
sS'represent'
p413
I1
sS'rather'
p414
I4
sS'make'
p415
I1
sS'see'
p416
I1
sS'resign'
p417
I1
sS'also'
p418
I1
sS'likely'
p419
I2
sS'betray'
p420
I1
sg296
I2
sS'fail'
p421
I1
sS'take'
p422
I1
sg361
I1
sS'embolden'
p423
I1
sS'improve'
p424
I1
ssS'army'
p425
(dp426
NI1
ssS'ploy'
p427
(dp428
g23
I1
ssS'arms'
p429
(dp430
S'or'
p431
I1
sg31
I1
ssS'call'
p432
(dp433
S'this'
p434
I1
sg23
I1
sg55
I1
sg89
I1
ssS'calm'
p435
(dp436
S'unity'
p437
I1
ssS'military,'
p438
(dp439
g60
I1
sg96
I1
ssS'strike'
p440
(dp441
g372
I1
sS'us,'
p442
I1
sS'saudi'
p443
I1
ssS'assessment'
p444
(dp445
g89
I1
ssS'until'
p446
(dp447
g85
I4
sg45
I2
ssS'holy'
p448
(dp449
S'warriors'
p450
I1
ssS'dismantled'
p451
(dp452
S'extensive'
p453
I1
ssS'successful'
p454
(dp455
S'president'
p456
I1
sNI1
ssS'wars'
p457
(dp458
g89
I1
ssS'aware'
p459
(dp460
g89
I1
ssg384
(dp461
g23
I2
ssS'warm'
p462
(dp463
S'cincinnati'
p464
I1
ssS'adult'
p465
(dp466
S'population'
p467
I1
ssS'90'
p468
(dp469
g244
I1
ssS'750'
p470
(dp471
g20
I1
ssS'92'
p472
(dp473
S'million'
p474
I1
ssS'blocking'
p475
(dp476
g80
I1
ssS'must'
p477
(dp478
g331
I3
sg322
I1
sS'move'
p479
I1
sS'offer'
p480
I1
sS'recognize'
p481
I1
sg285
I2
sS'stop'
p482
I1
sS'begin'
p483
I2
sg359
I5
sS'cease'
p484
I1
sg296
I3
sS'address'
p485
I1
sS'put'
p486
I1
sS'now'
p487
I1
sS'reveal'
p488
I1
sS'end'
p489
I1
sS'learn'
p490
I1
sS'assume'
p491
I1
sS'work'
p492
I2
sS'leave'
p493
I1
sg418
I1
sS'renew'
p494
I1
sS'stand'
p495
I1
sS'allow'
p496
I1
sS'act'
p497
I1
sS'release'
p498
I1
sS'understand'
p499
I1
sS'disarm'
p500
I2
sS'choose'
p501
I1
ssS'me'
p502
(dp503
g60
I4
sS'down'
p504
I4
sg295
I1
sg23
I1
sg42
I2
sg361
I1
sNI7
ssS'1990'
p505
(dp506
NI1
ssS'1993'
p507
(dp508
NI2
ssS'join'
p509
(dp510
g434
I3
sg243
I1
sS'us,'
p511
I1
sg502
I2
ssS'society,'
p512
(dp513
g60
I1
ssS'rights'
p514
(dp515
g60
I3
sS'found'
p516
I1
sS'groups'
p517
I1
sg89
I1
ssS'1999'
p518
(dp519
g26
I1
ssS'denying,'
p520
(dp521
S'deceiving,'
p522
I1
ssg492
(dp523
g60
I1
sg85
I1
sg31
I1
sg19
I3
sg89
I3
sg86
I1
sS'together'
p524
I3
sg23
I1
sg24
I1
sS'toward'
p525
I1
sNI6
sS'hiding'
p526
I1
ssS'refusing'
p527
(dp528
g23
I1
ssS'11th,'
p529
(dp530
S'saddam'
p531
I1
sg372
I1
sS'2001,'
p532
I1
sS'many'
p533
I1
ssS'indian,'
p534
(dp535
S'syrian,'
p536
I1
ssg260
(dp537
g89
I1
sNI1
ssS'mr'
p538
(dp539
S'speaker,'
p540
I1
sS'president,'
p541
I1
sS'secretary'
p542
I1
ssS'exceptions'
p543
(dp544
NI1
ssS'revenues'
p545
(dp546
g23
I3
ssg70
(dp547
S'case'
p548
I4
sS'dad'
p549
I1
sS'style'
p550
I3
sS'own'
p551
I1
sS'business'
p552
I1
sS'tax'
p553
I1
sS'administration'
p554
I1
sS'budget'
p555
I1
sS'country,'
p556
I1
sg103
I2
sS'faithbased'
p557
I1
sS'view,'
p558
I1
sS'plan,'
p559
I1
sS'fellow'
p560
I4
sS'orders,'
p561
I1
sS'opponent'
p562
I1
ssS'example'
p563
(dp564
g23
I1
sg26
I1
ssS'quarrel'
p565
(dp566
g19
I1
ssS'indicated'
p567
(dp568
g26
I1
ssS'give'
p569
(dp570
g257
I1
sg79
I1
sg343
I1
sg431
I1
sg265
I1
sS'an'
p571
I1
ssS'preserving'
p572
(dp573
S'executive'
p574
I1
ssS'custom,'
p575
(dp576
g85
I1
ssS'indicates'
p577
(dp578
g26
I2
ssS'want'
p579
(dp580
g23
I2
sS'them'
p581
I3
sS'americans'
p582
I1
sg372
I3
sS'you'
p583
I4
sS'peace'
p584
I1
sg45
I2
ssS'gleefully'
p585
(dp586
S'celebrated'
p587
I1
ssS'riskiest'
p588
(dp589
g89
I1
ssS'keep'
p590
(dp591
g243
I1
sg531
I1
sS'good'
p592
I3
sS'north'
p593
I1
sS'social'
p594
I1
sg134
I1
sg45
I4
sg257
I1
sNI1
sg151
I1
ssS'worse'
p595
(dp596
NI1
sg19
I1
ssg489
(dp597
g23
I1
sg322
I2
sS'result'
p598
I1
sg89
I1
sg45
I2
sNI3
sS'its'
p599
I1
ssS'recovery'
p600
(dp601
g86
I1
sS'programs'
p602
I1
ssS'thing'
p603
(dp604
g86
I4
sS'about'
p605
I1
ssS'provide'
p606
(dp607
g243
I1
sg581
I1
sS'humane'
p608
I1
sg108
I1
ssS'verify'
p609
(dp610
S"iraq's"
p611
I1
sg26
I1
ssS'travel'
p612
(dp613
NI3
ssS'feature'
p614
(dp615
g89
I1
ssS'how'
p616
(dp617
S'urgent'
p618
I1
sS'bright'
p619
I4
sS'can'
p620
I1
sS'do'
p621
I3
sg23
I3
sS'did'
p622
I1
sS'close'
p623
I1
sg533
I4
sS'hard'
p624
I4
sS'forced'
p625
I1
ssS'hot'
p626
(dp627
S'irons,'
p628
I1
ssS'toxin'
p629
(dp630
S'enough'
p631
I1
ssS'florida?'
p632
(dp633
g616
I1
ssS'answer'
p634
(dp635
g45
I1
sg90
I1
sg76
I4
ssS'gate'
p636
(dp637
g23
I1
ssS'ordinary'
p638
(dp639
S'citizens'
p640
I1
ssS'horror'
p641
(dp642
g89
I1
sS'like'
p643
I1
sg620
I1
ssS'gamble'
p644
(dp645
NI1
ssS'weapons,'
p646
(dp647
g60
I2
sg207
I1
sS'lay'
p648
I1
sg531
I1
sg372
I1
sg86
I1
sS'obtained'
p649
I1
ssS'cia,'
p650
(dp651
g45
I1
ssS'replacing'
p652
(dp653
g243
I1
ssS'highstrength'
p654
(dp655
S'aluminum'
p656
I3
ssS'after'
p657
(dp658
g243
I2
sS'11'
p659
I1
sS"iraq's"
p660
I1
sg16
I1
sS'september'
p661
I1
sS'recession,'
p662
I1
sS'year,'
p663
I1
sS'eleven'
p664
I1
sg162
I1
sg45
I5
sS'several'
p665
I1
sS'generations'
p666
I1
ssS'food,'
p667
(dp668
g60
I1
ssS'demanding'
p669
(dp670
S'full'
p671
I1
ssS'weapons?'
p672
(dp673
NI1
ssg648
(dp674
S'ahead'
p675
I1
sS'those'
p676
I1
ssg456
(dp677
S"clinton's"
p678
I1
sS'bush'
p679
I1
sS'added'
p680
I1
sS'cheney,'
p681
I1
sS'kennedy'
p682
I1
sS'i'
p683
I3
sNI4
sg211
I1
sg620
I1
ssS'law'
p684
(dp685
g60
I1
sg89
I1
sg41
I1
sS'enforcement'
p686
I1
ssS'purchase'
p687
(dp688
g654
I2
ssS'attempt'
p689
(dp690
g23
I1
sS'cruel'
p691
I1
ssS'effective'
p692
(dp693
g434
I1
sS'organization'
p694
I1
sS'vaccines'
p695
I1
ssS'appreciate'
p696
(dp697
g583
I1
sS'preservation'
p698
I3
ssS'688'
p699
(dp700
S'demanded'
p701
I1
ssS'things'
p702
(dp703
g26
I3
ssS'east,'
p704
(dp705
g60
I1
sg348
I1
sg85
I1
sS'there'
p706
I1
sg45
I1
ssS'preventive'
p707
(dp708
S'medicine'
p709
I1
ssS'atrocity'
p710
(dp711
g41
I1
ssS'order'
p712
(dp713
g23
I4
sg42
I1
ssg335
(dp714
g23
I1
sS'chief'
p715
I1
sg41
I1
sg42
I2
ssS'untold'
p716
(dp717
S'thousands'
p718
I1
ssS'office'
p719
(dp720
NI1
ssg275
(dp721
g683
I1
ssS'over'
p722
(dp723
S'25,000'
p724
I1
sg45
I6
sNI4
sS'time'
p725
I1
ssS'stockpiles'
p726
(dp727
g89
I1
ssS'wickedness'
p728
(dp729
g89
I1
ssg290
(dp730
g661
I1
sS'us,'
p731
I1
sg162
I2
sg26
I1
sS'being'
p732
I1
sS'seen'
p733
I1
sg45
I4
sS'ceasing'
p734
I1
sg55
I2
sS'us'
p735
I2
ssS'appeasement'
p736
(dp737
S'could'
p738
I1
ssS'position'
p739
(dp740
g23
I4
ssS'then,'
p741
(dp742
g60
I1
sg45
I1
ssS'personal'
p743
(dp744
S'support'
p745
I1
ssS'50,000'
p746
(dp747
g261
I1
sS'newlytrained'
p748
I1
sg340
I1
ssS'destroyed'
p749
(dp750
S'evidence,'
p751
I1
sg581
I3
sNI1
sS'by'
p752
I1
sg55
I2
ssS'production'
p753
(dp754
g60
I1
sg89
I1
sNI1
sg109
I1
sg21
I1
ssS'workable'
p755
(dp756
g374
I1
ssS'hidden'
p757
(dp758
g257
I1
sg346
I1
sNI1
ssS'easier'
p759
(dp760
NI4
ssS'overcome'
p761
(dp762
g434
I1
sS'hatred'
p763
I1
sS'obstacles'
p764
I1
sNI1
ssS'reformed'
p765
(dp766
g60
I1
ssS'terrorists,'
p767
(dp768
g397
I2
sg431
I2
ssS'then'
p769
(dp770
S'claim'
p771
I3
sg26
I2
sg359
I1
sS"i'm"
p772
I4
sg45
I1
sS'evil'
p773
I1
ssg581
(dp774
g60
I1
sg132
I2
sS'develop'
p775
I1
sg370
I1
sg31
I1
sg19
I2
sg86
I1
sg42
I2
sNI6
sS'without'
p776
I1
sg23
I5
sg187
I1
sS'openly'
p777
I1
sS'so'
p778
I1
sS'despite'
p779
I1
sg40
I1
ssS'poised'
p780
(dp781
g23
I1
ssS'iowa'
p782
(dp783
S'western'
p784
I1
ssS'diseases'
p785
(dp786
g60
I1
sg187
I1
ssS'combination'
p787
(dp788
g89
I1
ssS'prevented'
p789
(dp790
NI1
ssS'enrich'
p791
(dp792
S'uranium'
p793
I2
ssS"hussein's"
p794
(dp795
S'ability'
p796
I1
sS'links'
p797
I1
sg48
I1
sS'orders,'
p798
I1
sS'actions'
p799
I1
sS'regime'
p800
I3
ssS'safe'
p801
(dp802
S'haven'
p803
I2
ssS'history,'
p804
(dp805
g60
I1
sg45
I1
sS'plus'
p806
I1
ssg113
(dp807
g60
I1
ssS'avoids'
p808
(dp809
S'meaningless'
p810
I1
ssg162
(dp811
g60
I1
sg621
I1
sg322
I1
sS'practice'
p812
I1
sS'left?'
p813
I1
sS'strike?'
p814
I1
sS'speak'
p815
I1
sg407
I5
sg340
I3
sg296
I2
sS'need'
p816
I2
sS'said,'
p817
I4
sg477
I1
sg207
I1
sS'were,'
p818
I1
sg171
I3
sS'deserve'
p819
I2
sS'are,'
p820
I2
sS'misunderestimated'
p821
I4
sg620
I7
sg246
I1
sS'include'
p822
I1
sg738
I1
sS'forged'
p823
I1
ssS'yourself'
p824
(dp825
NI2
ssS'humanity'
p826
(dp827
NI1
ssS'onethird'
p828
(dp829
g89
I1
ssS'defected'
p830
(dp831
g60
I1
sS'revealed'
p832
I1
sNI1
ssS'represents'
p833
(dp834
g243
I1
sg322
I1
ssS'week,'
p835
(dp836
g45
I1
ssS'oxygen'
p837
(dp838
S'generates'
p839
I1
ssS'iran,'
p840
(dp841
g60
I1
sg85
I1
sS'israel,'
p842
I1
ssS'shadowy'
p843
(dp844
g244
I1
ssS'arrested'
p845
(dp846
g431
I1
sg42
I1
ssS'slavery'
p847
(dp848
S'prosperity'
p849
I1
ssS'officials,'
p850
(dp851
S'electronically'
p852
I1
ssS'victory'
p853
(dp854
g86
I1
sNI1
sg42
I1
ssS'each'
p855
(dp856
S'case,'
p857
I2
ssS'addicted'
p858
(dp859
g23
I1
sg45
I1
sS'men'
p860
I1
ssS'went'
p861
(dp862
g23
I2
ssS'operatives'
p863
(dp864
g89
I1
ssS'side'
p865
(dp866
g89
I1
sg776
I1
sg19
I1
sg752
I1
ssS'mean'
p867
(dp868
g219
I1
sS'something'
p869
I1
sg26
I1
ssS'lifted'
p870
(dp871
NI1
ssS'fairly'
p872
(dp873
g60
I1
ssS'egyptian,'
p874
(dp875
S'bahraini,'
p876
I1
ssS'series'
p877
(dp878
g89
I1
ssS'crimes'
p879
(dp880
g407
I1
ssS'principles'
p881
(dp882
g60
I1
ssg339
(dp883
g55
I1
ssS'carry'
p884
(dp885
g132
I1
ssS'used'
p886
(dp887
g119
I1
sg23
I7
sg581
I1
sg257
I1
sg31
I1
sS'diplomacy'
p888
I1
sg42
I1
sg872
I1
ssS"we'd"
p889
(dp890
S'know'
p891
I1
ssS'resignates'
p892
(dp893
S'sic'
p894
I4
ssg261
(dp895
g60
I1
sS'virus'
p896
I1
sS'victims'
p897
I1
sS'infections,'
p898
I1
sS'diagnosis'
p899
I1
sg42
I1
sS'relief'
p900
I1
sNI1
sg620
I1
ssS'120,000'
p901
(dp902
S'additional'
p903
I1
ssS'forwarding'
p904
(dp905
g60
I1
ssS'network'
p906
(dp907
NI1
sS'share'
p908
I1
sS'solutions'
p909
I1
sg89
I2
ssS'kuwait'
p910
(dp911
g60
I2
sg776
I1
sg42
I1
ssS'crucial'
p912
(dp913
S'hours'
p914
I1
sg23
I2
sg115
I1
sg745
I1
ssS'forty'
p915
(dp916
S'villages'
p917
I1
ssS'preclearance,'
p918
(dp919
g776
I1
ssS'americans,'
p920
(dp921
g85
I2
ssS'encourage'
p922
(dp923
g322
I1
sS'economic'
p924
I1
sS'acts'
p925
I1
ssS'banning'
p926
(dp927
g45
I1
ssS'is,'
p928
(dp929
g616
I4
sS'reading'
p930
I1
ssg709
(dp931
g60
I1
sg86
I1
sNI1
sg583
I1
sg162
I1
ssS'got'
p932
(dp933
g243
I4
sg23
I3
sS'aids,'
p934
I1
ssS'engineer'
p935
(dp936
g182
I1
ssS'declaring'
p937
(dp938
g60
I1
ssS'independence'
p939
(dp940
g31
I1
ssS'preceed'
p941
(dp942
g23
I1
ssS'1996,'
p943
(dp944
S'deploring'
p945
I1
ssS'resume'
p946
(dp947
g269
I1
ssS'veto'
p948
(dp949
S'any'
p950
I1
ssS'lawless'
p951
(dp952
g23
I1
sg860
I1
ssS'little'
p953
(dp954
S'west'
p955
I3
sg105
I1
sS'doubt'
p956
I1
sg265
I1
sS'larger'
p957
I1
ssS'free'
p958
(dp959
S'from'
p960
I1
sS'people,'
p961
I1
sS'people'
p962
I1
sS'url'
p963
I1
sS'country'
p964
I1
sS'nations'
p965
I4
sg23
I1
sS'peoples,'
p966
I1
sS'iraq,'
p967
I1
sNI2
sg599
I1
sS'societies'
p968
I1
ssS'standard'
p969
(dp970
g31
I1
ssS'skin,'
p971
(dp972
S'mutilation'
p973
I1
ssS'fingerprints,'
p974
(dp975
g37
I1
ssS'struggle'
p976
(dp977
g23
I1
sg19
I1
ssS"people's"
p978
(dp979
S'lives,'
p980
I1
ssS'sensors'
p981
(dp982
g23
I1
ssS'wanted'
p983
(dp984
g23
I1
sNI1
ssS'enormous'
p985
(dp986
S'sums,'
p987
I1
ssS'recovering'
p988
(dp989
S'yet'
p990
I1
ssS'created'
p991
(dp992
g45
I2
sg211
I1
ssS'obligations,'
p993
(dp994
g60
I1
ssS'messages'
p995
(dp996
S'urging'
p997
I1
ssS'days'
p998
(dp999
g89
I4
sg211
I1
sg26
I1
ssS'priorities'
p1000
(dp1001
g407
I1
sg86
I1
sNI1
ssg494
(dp1002
g26
I2
ssS'heck'
p1003
(dp1004
g89
I4
ssS'unknown'
p1005
(dp1006
NI2
ssS'uses'
p1007
(dp1008
g269
I1
sg108
I1
ssS'stagnation,'
p1009
(dp1010
g60
I1
ssS'user'
p1011
(dp1012
S'..'
p1013
I1
ssS'inspectors'
p1014
(dp1015
S'set'
p1016
I1
sS'recently'
p1017
I1
sg86
I1
sg42
I2
sS'immediate'
p1018
I1
sS'should'
p1019
I1
sS'discovered'
p1020
I1
sg23
I2
sg340
I1
sg296
I1
sg246
I3
sg290
I1
sS'learned'
p1021
I1
sS'believe'
p1022
I1
sNI2
sS'themselves'
p1023
I1
sg477
I1
ssS'already'
p1024
(dp1025
g886
I3
sS'addicted,'
p1026
I1
sS'passed'
p1027
I1
sS'significant,'
p1028
I1
ssS'disfigured'
p1029
(dp1030
NI1
ssS'hearing'
p1031
(dp1032
g45
I4
ssS'powergenerating'
p1033
(dp1034
S'plants'
p1035
I1
ssS'another'
p1036
(dp1037
S'threat,'
p1038
I1
sS'cause'
p1039
I1
sS'threat'
p1040
I1
ssS'clarity'
p1041
(dp1042
g60
I1
ssg821
(dp1043
g502
I4
ssS'power,'
p1044
(dp1045
g37
I1
sg85
I1
sS'wonderworking'
p1046
I1
sS'just'
p1047
I1
sg42
I1
ssS'service'
p1048
(dp1049
g60
I1
sS'act,'
p1050
I1
sS'members'
p1051
I1
ssS'produce,'
p1052
(dp1053
S'buy,'
p1054
I1
ssS'respectful,'
p1055
(dp1056
g60
I1
ssS'recruiting'
p1057
(dp1058
g89
I1
ssS'nation,'
p1059
(dp1060
S'large'
p1061
I1
sg60
I1
sS'protect'
p1062
I1
sg42
I1
ssS'needed'
p1063
(dp1064
g23
I1
sNI1
sg31
I1
ssS'ballistic'
p1065
(dp1066
S'missiles'
p1067
I3
ssS'too'
p1068
(dp1069
S'late'
p1070
I4
sg533
I1
sS'great'
p1071
I1
sS'much'
p1072
I1
sS'long'
p1073
I1
ssS'deliberately,'
p1074
(dp1075
S'decisively'
p1076
I1
ssS'sure,'
p1077
(dp1078
g372
I1
ssS'listen'
p1079
(dp1080
S'carefully'
p1081
I1
ssS'murder'
p1082
(dp1083
g207
I1
sS'had'
p1084
I1
sg187
I1
sNI5
ssS'tool'
p1085
(dp1086
g89
I1
ssg917
(dp1087
S'leaving'
p1088
I1
sNI1
sg42
I2
ssS'serve'
p1089
(dp1090
g407
I1
sg372
I2
sg45
I1
sNI1
ssS'crate'
p1091
(dp1092
S'slipped'
p1093
I1
ssS'execution,'
p1094
(dp1095
g60
I1
ssg784
(dp1096
S'wall'
p1097
I1
sS'community'
p1098
I1
sS'governments'
p1099
I1
ssS'hour,'
p1100
(dp1101
S'american'
p1102
I1
ssS'conservation,'
p1103
(dp1104
g23
I1
ssS'mercy'
p1105
(dp1106
g89
I2
sS'beyond'
p1107
I1
ssS'peril'
p1108
(dp1109
g60
I1
sg960
I1
sNI1
ssS'showed'
p1110
(dp1111
g372
I1
ssS'outlaw'
p1112
(dp1113
S'regimes'
p1114
I2
sg517
I1
sg800
I2
ssg419
(dp1115
S'produced'
p1116
I1
sS'range'
p1117
I1
sS'maintains'
p1118
I1
sg296
I2
ssg965
(dp1119
g243
I1
sS'concluded'
p1120
I2
sg171
I2
sg622
I1
sg89
I2
sNI4
sg1089
I1
sS'requires'
p1121
I1
sS'helping'
p1122
I1
sg23
I6
sg776
I1
sg620
I4
sg296
I3
sg42
I1
sg308
I1
sS'security'
p1123
I6
sg40
I2
sg340
I1
ssS'project'
p1124
(dp1125
S'bioshield'
p1126
I1
ssS'matter'
p1127
(dp1128
g23
I4
sNI1
ssS'guilt'
p1129
(dp1130
g31
I1
ssg1026
(dp1131
g45
I1
ssS'deserving'
p1132
(dp1133
g60
I1
ssS"company's"
p1134
(dp1135
S'profits'
p1136
I1
ssS'gives'
p1137
(dp1138
S'assistance'
p1139
I1
ssS'powers'
p1140
(dp1141
g31
I1
ssS'pervasive'
p1142
(dp1143
NI1
ssS'manned'
p1144
(dp1145
g60
I1
ssS'exploring'
p1146
(dp1147
S'ways'
p1148
I1
ssg166
(dp1149
S'putting'
p1150
I1
ssS'mine'
p1151
(dp1152
g60
I1
ssS'spent'
p1153
(dp1154
g243
I1
sg985
I1
ssS'rigorous'
p1155
(dp1156
S'inspections'
p1157
I1
ssg733
(dp1158
g132
I1
sS'what'
p1159
I1
sS'anything'
p1160
I1
sg26
I1
ssS'seem'
p1161
(dp1162
g23
I4
ssS'2000redefining'
p1163
(dp1164
g45
I1
ssS'seek'
p1165
(dp1166
g243
I1
sg60
I1
sg584
I2
sS'treatment'
p1167
I1
sS'concessions'
p1168
I1
ssS'dozen'
p1169
(dp1170
g71
I1
ssg625
(dp1171
g23
I2
sS'confessions'
p1172
I1
sS'upon'
p1173
I2
ssg343
(dp1174
g23
I1
sNI1
sS'='
p1175
I1
sg89
I1
ssS'responsible'
p1176
(dp1177
g31
I1
ssS'-'
p1178
(dp1179
g96
I1
ssS'isolated'
p1180
(dp1181
g960
I1
ssS'sound'
p1182
(dp1183
g243
I3
sg60
I1
ssS'causing'
p1184
(dp1185
g133
I4
ssS'forces'
p1186
(dp1187
g60
I1
sg407
I3
sg487
I1
sg340
I1
sg296
I1
sg23
I1
sg533
I1
sg246
I1
ssS'willing,'
p1188
(dp1189
g42
I1
ssS'orphaned'
p1190
(dp1191
g752
I1
ssS'exactly'
p1192
(dp1193
g45
I1
sg182
I1
sS'where'
p1194
I1
ssS'thing,'
p1195
(dp1196
g60
I4
ssS'necessary,'
p1197
(dp1198
g683
I1
sg23
I1
sg45
I1
ssS'object'
p1199
(dp1200
g89
I1
ssS'enablers'
p1201
(dp1202
g23
I2
ssS'blackmailed'
p1203
(dp1204
NI1
ssS'ensure'
p1205
(dp1206
g853
I1
sg26
I2
ssS'entry'
p1207
(dp1208
g89
I1
ssS'hide'
p1209
(dp1210
NI1
sg676
I1
ssS'see,'
p1211
(dp1212
g60
I1
ssS'difficulties,'
p1213
(dp1214
g85
I1
ssS'disarmed'
p1215
(dp1216
NI2
ssS'grave'
p1217
(dp1218
g60
I1
sS'violations'
p1219
I1
sg1040
I1
sg100
I1
ssS'morality'
p1220
(dp1221
g60
I1
sNI1
ssS'force,'
p1222
(dp1223
S'navy,'
p1224
I1
ssS'medical'
p1225
(dp1226
S'liability'
p1227
I1
sg1167
I1
sS'care'
p1228
I2
ssS'sanctions,'
p1229
(dp1230
g359
I1
sg69
I1
sS'inspections,'
p1231
I1
ssS'yours'
p1232
(dp1233
g60
I1
ssS'dubbya'
p1234
(dp1235
g340
I1
ssS'accounted'
p1236
(dp1237
g31
I4
sS'for,'
p1238
I1
ssS'urgency'
p1239
(dp1240
g89
I1
ssS'unanimously'
p1241
(dp1242
g1027
I1
ssS'bomb'
p1243
(dp1244
NI2
ssS'hunger'
p1245
(dp1246
g60
I1
ssS'reductions'
p1247
(dp1248
g1016
I1
ssS'meetings'
p1249
(dp1250
g19
I1
sNI3
sS'between'
p1251
I1
ssS'stalin,'
p1252
(dp1253
S'using'
p1254
I1
ssS'ending'
p1255
(dp1256
g45
I2
ssS'terror,'
p1257
(dp1258
g60
I3
sg243
I1
sg45
I2
ssS'attempts'
p1259
(dp1260
g23
I2
ssS'qaeda'
p1261
(dp1262
g335
I2
sg296
I1
sg244
I1
sg180
I1
sg1051
I1
sS'terrorists'
p1263
I1
sS'cells'
p1264
I1
sNI3
sS'leader'
p1265
I2
sS'operative'
p1266
I1
ssS'radio'
p1267
(dp1268
S'broadcast,'
p1269
I1
ssS'asia'
p1270
(dp1271
g243
I1
ssS'participate'
p1272
(dp1273
S'fully'
p1274
I1
sg42
I1
ssS'lethal'
p1275
(dp1276
g60
I1
sg257
I1
sS'viruses'
p1277
I1
ssS'earth'
p1278
(dp1279
NI2
ssS'lessons'
p1280
(dp1281
g89
I1
ssS'explanation,'
p1282
(dp1283
g45
I1
ssS'explain'
p1284
(dp1285
g23
I4
ssg803
(dp1286
g23
I2
ssg679
(dp1287
S'declared'
p1288
I1
sS'said'
p1289
I1
ssS'deepest'
p1290
(dp1291
S'problems'
p1292
I1
sS'commitments'
p1293
I1
ssS'rich'
p1294
(dp1295
g60
I1
sg42
I1
ssS'pursuing'
p1296
(dp1297
g665
I1
ssg621
(dp1298
g85
I1
sg26
I1
sg359
I13
sS'since'
p1299
I1
sg211
I3
sg55
I1
sS'everything'
p1300
I3
sS'amazing'
p1301
I1
sS'does'
p1302
I1
sg778
I3
sg340
I1
sg296
I1
sg42
I1
sS'nothing'
p1303
I1
sg583
I3
sg752
I1
ssS'assignment'
p1304
(dp1305
NI1
ssg249
(dp1306
g60
I2
ssS'hostility'
p1307
(dp1308
g525
I1
ssg482
(dp1309
g322
I2
sS'developing'
p1310
I1
ssS'denounce'
p1311
(dp1312
g55
I1
ssS'coast'
p1313
(dp1314
S'guard'
p1315
I2
ssg724
(dp1316
S'liters'
p1317
I1
ssS'spirit'
p1318
(dp1319
g89
I2
ssS'supplies'
p1320
(dp1321
g60
I2
sg581
I1
ssS'promises,'
p1322
(dp1323
g531
I1
ssS'comply'
p1324
(dp1325
g19
I1
ssg968
(dp1326
g621
I2
ssS'countries'
p1327
(dp1328
g60
I1
sg340
I1
sg296
I1
sg42
I1
sg89
I1
sg26
I1
sNI1
sg431
I1
ssS'general,'
p1329
(dp1330
g538
I1
ssS'method'
p1331
(dp1332
g89
I1
ssS'men,'
p1333
(dp1334
S'women'
p1335
I2
ssS'twice'
p1336
(dp1337
S'renewed'
p1338
I1
sg219
I1
ssS'bad'
p1339
(dp1340
S'faith'
p1341
I1
ssS'delay,'
p1342
(dp1343
g776
I1
ssS'progress,'
p1344
(dp1345
g431
I1
ssS'defiance,'
p1346
(dp1347
g226
I1
ssS'them,'
p1348
(dp1349
g60
I1
sg407
I1
sS'placing'
p1350
I1
sg431
I1
ssS'ruins'
p1351
(dp1352
g89
I1
ssS'require'
p1353
(dp1354
g9
I1
sS'different'
p1355
I1
sg301
I4
sg1018
I1
sg372
I1
ssg542
(dp1356
g89
I1
sg1329
I1
sS"general's"
p1357
I1
ssS'fair'
p1358
(dp1359
g23
I2
sS'notice,'
p1360
I1
ssS'testing'
p1361
(dp1362
g60
I1
ssS'zones'
p1363
(dp1364
g23
I1
ssS'checks'
p1365
(dp1366
g23
I1
ssS'depends'
p1367
(dp1368
g132
I1
ssS'projections'
p1369
(dp1370
NI1
ssg421
(dp1371
g23
I1
sNI1
ssS'escaping'
p1372
(dp1373
S'old'
p1374
I1
ssS'insurance,'
p1375
(dp1376
S"that's"
p1377
I1
ssS'activities'
p1378
(dp1379
g23
I1
sNI1
ssS'best'
p1380
(dp1381
g60
I1
sS'intelligence'
p1382
I1
sg120
I1
sS'achieve'
p1383
I1
sS'information'
p1384
I1
ssS'subject'
p1385
(dp1386
S'millions'
p1387
I1
ssg1289
(dp1388
g60
I1
sg85
I1
sg42
I1
sg26
I1
sS'yes'
p1389
I1
sg133
I1
sNI2
sg55
I1
ssS'ambitions'
p1390
(dp1391
g60
I1
sg211
I1
sNI2
sg89
I3
ssS'away'
p1392
(dp1393
NI1
sg1387
I1
sg960
I2
sg151
I1
sg42
I1
ssS'arrived'
p1394
(dp1395
g42
I1
ssS'scud'
p1396
(dp1397
S'warheads,'
p1398
I1
ssS'hitlerism,'
p1399
(dp1400
S'militarism,'
p1401
I1
ssS"there's"
p1402
(dp1403
g243
I5
sg359
I3
sS'power,'
p1404
I1
sg285
I1
ssS'disarm,'
p1405
(dp1406
g31
I1
ssS'cooperation'
p1407
(dp1408
S'entirely'
p1409
I1
ssS'ira'
p1410
(dp1411
S'agents'
p1412
I4
ssS'approach'
p1413
(dp1414
g23
I1
ssS'shields'
p1415
(dp1416
g31
I1
ssS'discovery'
p1417
(dp1418
g26
I1
ssS'preserve'
p1419
(dp1420
NI3
ssS'letting'
p1421
(dp1422
g502
I1
ssg85
(dp1423
g60
I1
sS'dedicated'
p1424
I1
sg492
I2
sg296
I23
sS"don't"
p1425
I1
sS'owe'
p1426
I1
sg322
I1
sS'accept'
p1427
I2
sS'helped'
p1428
I1
sg816
I8
sg416
I1
sg582
I1
sg340
I16
sg579
I9
sg421
I1
sS'know,'
p1429
I1
sg1019
I7
sS'saw'
p1430
I1
sS'find'
p1431
I1
sg1380
I1
sS'delivered'
p1432
I1
sg1022
I3
sg133
I1
sS'did,'
p1433
I1
sS'achieved'
p1434
I1
sg1084
I1
sS'fight'
p1435
I1
sS'remembered'
p1436
I1
sg501
I2
sg1027
I1
sS'enforce'
p1437
I1
sS'go'
p1438
I1
sS'start'
p1439
I4
sg761
I1
sS'dread'
p1440
I1
sS'resolved'
p1441
I1
sg621
I5
sS'agree,'
p1442
I3
sg886
I1
sg23
I1
sS'get'
p1443
I4
sS'may'
p1444
I1
sg738
I1
sS'sacrifice'
p1445
I1
sS'ought'
p1446
I5
sS'cannot'
p1447
I3
sg891
I11
sg983
I1
sg361
I1
sg477
I17
sS'can,'
p1448
I1
sg418
I2
sS'refuse'
p1449
I1
sg487
I2
sg147
I1
sg991
I1
sg622
I1
sS'confront'
p1450
I1
sg1165
I2
sS'gather'
p1451
I1
sg1153
I1
sg620
I5
sS'reorganized'
p1452
I1
sg407
I45
sS'turn'
p1453
I1
sg494
I1
sS'continue'
p1454
I2
sS'stopped'
p1455
I1
sS'exercise'
p1456
I1
sg496
I1
sg490
I1
sS'wait,'
p1457
I1
sS'meet'
p1458
I4
sS'strive'
p1459
I2
sS'agree'
p1460
I1
sS"can't"
p1461
I1
ssg860
(dp1462
g60
I5
sg402
I1
sS'seized'
p1463
I1
sg182
I1
sNI2
sg958
I1
ssS'terms'
p1464
(dp1465
g246
I1
ssS'extend'
p1466
(dp1467
g98
I1
sS'trade'
p1468
I1
ssS'nature'
p1469
(dp1470
g89
I4
sNI4
ssS'weak'
p1471
(dp1472
g60
I1
ssS'southeast'
p1473
(dp1474
g1270
I1
ssS'retirement'
p1475
(dp1476
S'accounts'
p1477
I1
ssg319
(dp1478
NI3
ssS'wtf'
p1479
(dp1480
S'why'
p1481
I1
ssS'defiance'
p1482
(dp1483
g89
I1
sNI1
ssS'news'
p1484
(dp1485
g605
I1
ssS'realities,'
p1486
(dp1487
g34
I1
ssS'gulf,'
p1488
(dp1489
g182
I1
ssg424
(dp1490
g372
I1
sg45
I1
sS'dramatically'
p1491
I1
ssS'faced'
p1492
(dp1493
g45
I1
sg19
I1
ssS'described,'
p1494
(dp1495
g1159
I5
ssg1062
(dp1496
g434
I1
sg322
I1
sS'infants'
p1497
I1
sg372
I5
sg76
I1
sg735
I1
ssS'met'
p1498
(dp1499
g243
I1
sg19
I1
sg431
I1
ssg964
(dp1500
g60
I4
sg85
I1
sg26
I1
sS'certain'
p1501
I1
sg86
I1
sg752
I1
sg407
I1
sg23
I3
sg1072
I1
sg42
I1
sg45
I2
sg348
I1
sNI13
sg76
I1
ssS'uncertainty'
p1502
(dp1503
g60
I3
ssS'countries,'
p1504
(dp1505
g407
I1
ssg701
(dp1506
g26
I3
ssS'planned'
p1507
(dp1508
g45
I1
ssS'faces'
p1509
(dp1510
g243
I1
sg89
I1
sg571
I1
ssg284
(dp1511
g391
I1
ssS'asked'
p1512
(dp1513
g616
I1
sg86
I3
sg250
I1
ssS'peacefully'
p1514
(dp1515
g407
I4
sNI2
ssS'prospect'
p1516
(dp1517
g89
I2
ssS'tough'
p1518
(dp1519
S'reforms,'
p1520
I1
ssS'1991,'
p1521
(dp1522
g1123
I1
sg15
I1
sg45
I3
ssS"council's"
p1523
(dp1524
S'longstanding'
p1525
I1
ssS'appeared'
p1526
(dp1527
S'again,'
p1528
I1
ssg1084
(dp1529
g243
I3
sg830
I1
sg886
I1
sS'ordered'
p1530
I1
sS'upwards'
p1531
I1
sg133
I2
sg531
I1
sS'only'
p1532
I1
sg276
I1
sg571
I2
sg1116
I1
sS'started'
p1533
I1
sg419
I1
sg346
I1
sS'biological'
p1534
I1
sg45
I1
sg665
I1
sS'highlevel'
p1535
I1
ssg255
(dp1536
g23
I1
ssS'tons'
p1537
(dp1538
g89
I3
ssS'initiative'
p1539
(dp1540
g60
I1
sg23
I1
ssS'commanderinchief,'
p1541
(dp1542
g752
I1
ssS'wider'
p1543
(dp1544
S'war'
p1545
I1
ssS'administrations'
p1546
(dp1547
g1151
I1
ssS'trust'
p1548
(dp1549
g86
I1
sNI4
sg42
I1
ssg815
(dp1550
S'out'
p1551
I1
ssS'now,'
p1552
(dp1553
g187
I1
sg246
I1
sg42
I1
sg19
I1
sg15
I1
sg1194
I1
sg55
I1
ssS'arsenals,'
p1554
(dp1555
g60
I1
ssS'strong'
p1556
(dp1557
S'nation,'
p1558
I1
sNI1
ssS'targeting'
p1559
(dp1560
g45
I2
ssS'union'
p1561
(dp1562
g86
I1
sNI1
ssS'three'
p1563
(dp1564
g79
I1
sg219
I2
sS'metric'
p1565
I1
sS'months'
p1566
I1
sg793
I1
sg18
I1
ssg276
(dp1567
g1016
I1
sS'associated'
p1568
I1
sS'returned'
p1569
I1
sS'coached'
p1570
I1
sS'almost'
p1571
I1
sS'threatened'
p1572
I1
sS'moved'
p1573
I1
sS'healed'
p1574
I1
sS'part'
p1575
I1
sg625
I1
sS'appeased'
p1576
I1
sS'systematically'
p1577
I1
sg1072
I1
sS'subjected'
p1578
I1
sg845
I1
sS'doing'
p1579
I1
sg1236
I1
sS'taken'
p1580
I1
sS'treated'
p1581
I1
sS'decapitated,'
p1582
I1
sg765
I1
sg219
I1
ssS'quickly'
p1583
(dp1584
g415
I1
ssg818
(dp1585
g37
I1
ssS'commission'
p1586
(dp1587
g132
I1
ssg1072
(dp1588
g272
I1
sg60
I1
sg187
I2
sg23
I1
sg31
I1
sg42
I1
sS'less'
p1589
I1
sNI1
sg990
I1
ssS'expected'
p1590
(dp1591
g23
I1
ssS'thomas1'
p1592
(dp1593
g96
I1
ssS'deceptions,'
p1594
(dp1595
g60
I1
ssS'sunnis'
p1596
(dp1597
g60
I1
ssg649
(dp1598
g19
I1
sg752
I1
ssg98
(dp1599
g60
I1
sg23
I1
sS'forever'
p1600
I1
sg31
I1
sg132
I1
sg89
I8
sg86
I4
sNI4
sg1019
I1
ssS'families'
p1601
(dp1602
NI2
sg86
I5
sg487
I1
sg19
I1
sg89
I1
ssS'innocent'
p1603
(dp1604
g60
I1
sg79
I1
sS'lives'
p1605
I1
sg962
I3
sS'men,'
p1606
I1
sS'civilians'
p1607
I1
sNI2
ssS'mushroom'
p1608
(dp1609
S'cloud'
p1610
I1
ssS'attacked'
p1611
(dp1612
g60
I1
sS'iran'
p1613
I1
ssg252
(dp1614
g620
I1
sg26
I1
sg86
I1
sg348
I1
sNI6
sg752
I1
ssS'suppress'
p1615
(dp1616
S'it,'
p1617
I1
ssS'options,'
p1618
(dp1619
g188
I1
ssS'prison'
p1620
(dp1621
g636
I1
ssS'search'
p1622
(dp1623
g89
I1
ssS'bushinterview'
p1624
(dp1625
g19
I1
ssS'generals'
p1626
(dp1627
g171
I1
ssg107
(dp1628
S'born'
p1629
I1
sg42
I1
sNI1
sg23
I4
sg327
I1
ssS'worked'
p1630
(dp1631
g219
I1
sg212
I1
sg31
I1
sg42
I1
ssS'confidence,'
p1632
(dp1633
g60
I1
sg188
I1
ssS'deliberations'
p1634
(dp1635
g171
I1
ssS'tide'
p1636
(dp1637
g41
I1
ssS'save'
p1638
(dp1639
g1387
I1
ssS'conviction'
p1640
(dp1641
S'leads'
p1642
I1
ssS'publicly'
p1643
(dp1644
g160
I1
ssS'antiretroviral'
p1645
(dp1646
g252
I1
ssS'air'
p1647
(dp1648
S'bases,'
p1649
I1
sg1222
I1
sS'significantly'
p1650
I1
sS'pollution'
p1651
I1
ssS'employ'
p1652
(dp1653
g90
I1
ssS'near'
p1654
(dp1655
g45
I1
sNI1
ssS'teachers'
p1656
(dp1657
g23
I3
sNI3
ssS'leaves'
p1658
(dp1659
g133
I1
ssS'aid'
p1660
(dp1661
g1194
I1
sg287
I1
ssS'possess'
p1662
(dp1663
g60
I1
sS'nuclear,'
p1664
I1
ssS'voice'
p1665
(dp1666
g60
I1
ssS'elaborate'
p1667
(dp1668
S'lengths,'
p1669
I1
ssS'japan,'
p1670
(dp1671
S'china,'
p1672
I1
ssS'seven'
p1673
(dp1674
g18
I2
ssS'losses'
p1675
(dp1676
S'resulting'
p1677
I1
sNI3
ssg86
(dp1678
S'among'
p1679
I1
sg322
I3
sg1024
I1
sS'clinton'
p1680
I3
sS'reliant'
p1681
I4
sg7
I1
sS'complying'
p1682
I1
sg722
I3
sg1215
I1
sS'blessed'
p1683
I1
sg698
I3
sg1031
I4
sS'assembling'
p1684
I1
sS'simply'
p1685
I1
sS'still'
p1686
I5
sS'suicide'
p1687
I1
sg108
I1
sS'adding'
p1688
I1
sg56
I1
sS'deceiving'
p1689
I1
sS'working'
p1690
I2
sg25
I1
sS'leading'
p1691
I1
sS'possible,'
p1692
I1
sg1481
I1
sg23
I19
sS'going'
p1693
I1
sg1068
I2
sS'expanding'
p1694
I1
sg1590
I1
sg1077
I1
sS"god's"
p1695
I1
sg219
I1
sS'building'
p1696
I1
sg592
I1
sS'broadly'
p1697
I1
sg26
I2
sS'ancient,'
p1698
I1
sS'familiar'
p1699
I1
sS"'will"
p1700
I1
sS'required,'
p1701
I1
sS'possible'
p1702
I1
sS'disarming'
p1703
I1
sg359
I21
sg1254
I1
sg487
I1
sg475
I1
sS'great,'
p1704
I1
sS'desperately'
p1705
I1
sS'enlisting'
p1706
I1
sg1112
I1
sS'up'
p1707
I1
sS'realistic'
p1708
I1
sg1654
I1
sS'determined'
p1709
I1
sS'ruling'
p1710
I1
sg858
I1
sg516
I1
sS'harboring'
p1711
I1
sg1194
I5
sS'clear'
p1712
I6
sg45
I17
sg671
I1
sS'challenging'
p1713
I1
sS'challenged'
p1714
I2
sg1501
I1
sg886
I1
sS'high'
p1715
I1
sg360
I1
sS'sometime'
p1716
I3
sg372
I4
sNI1
sg207
I1
sg1197
I2
sg1355
I1
sS'precisely'
p1717
I1
sS'prosperous'
p1718
I1
sg31
I5
sg133
I3
sS'imminent'
p1719
I2
sS'seeking'
p1720
I1
sS'able'
p1721
I1
sg418
I1
sg247
I1
sg267
I1
sS'underestimating'
p1722
I3
sS'rebuilding'
p1723
I3
sS'sure'
p1724
I1
sg251
I1
sg625
I2
sS'transforming'
p1725
I1
sS'felt'
p1726
I1
sS'continuing'
p1727
I1
sg958
I1
sg616
I1
sg912
I1
sS'moving'
p1728
I1
sS'making'
p1729
I1
sS'improving'
p1730
I1
sS'reconstituting'
p1731
I1
sg1556
I1
sg292
I1
sg526
I1
sg243
I23
sg132
I2
sS'unique'
p1732
I1
sS'firm,'
p1733
I1
sg988
I1
sS'when,'
p1734
I1
sS'considered'
p1735
I1
sS'taking'
p1736
I1
sS'sometimes'
p1737
I1
sS'well'
p1738
I1
sS'important'
p1739
I4
sg288
I1
sg1071
I1
sS'addiction'
p1740
I1
sS'joining'
p1741
I1
sg1232
I1
sg1146
I1
sS'mobilizing'
p1742
I1
ssg55
(dp1743
g322
I4
sS'brings,'
p1744
I1
sg86
I29
sS'reaches'
p1745
I1
sg824
I1
sg892
I4
sS'proves'
p1746
I1
sNI31
sS'arises,'
p1747
I1
sS'takes'
p1748
I1
sg171
I3
sg1392
I1
sg1084
I4
sg23
I2
sg1532
I1
sS'now?'
p1749
I1
sg808
I1
sg348
I5
sg40
I6
sg331
I1
sS'arises'
p1750
I1
sg1444
I4
sS'retains'
p1751
I1
sS'began'
p1752
I1
sS'but'
p1753
I1
sS'broke'
p1754
I2
sg359
I1
sg960
I3
sg487
I1
sg477
I3
sg243
I1
sS'both'
p1755
I3
sS'declared,'
p1756
I1
sg434
I1
sS'turns'
p1757
I1
sg738
I4
sS'later'
p1758
I1
sS'possesses'
p1759
I1
sg407
I12
sS'gathers'
p1760
I1
sg620
I3
sg45
I1
sg415
I1
sg287
I1
ssS'defeated'
p1761
(dp1762
g752
I1
ssS'straits'
p1763
(dp1764
g89
I1
sg45
I1
ssS'elevenyear'
p1765
(dp1766
S'history'
p1767
I1
ssS'governor,'
p1768
(dp1769
g431
I4
ssg897
(dp1770
g1532
I1
ssg817
(dp1771
S"'you"
p1772
I4
sg1194
I1
sg45
I1
sg1572
I1
sS'god'
p1773
I1
ssS'trusted'
p1774
(dp1775
NI1
ssg96
(dp1776
S"you're"
p1777
I3
sg85
I7
sg15
I2
sS'affirmative'
p1778
I5
sg1545
I3
sS"he's"
p1779
I3
sg434
I8
sg706
I1
sg322
I1
sg571
I1
sg531
I4
sg1532
I1
sg162
I1
sg9
I1
sg55
I1
sg372
I2
sg583
I6
sS"iraq's"
p1780
I1
sg45
I6
ssS'confirmed'
p1781
(dp1782
g42
I1
ssS'suggest'
p1783
(dp1784
S'otherwise'
p1785
I1
ssg415
(dp1786
S'available'
p1787
I1
sg1724
I6
sg26
I3
sg434
I1
sS'blackmail'
p1788
I1
sg90
I1
sg372
I2
sg45
I6
sNI2
sg950
I1
sg219
I1
ssS'material,'
p1789
(dp1790
g55
I1
ssS'defectors'
p1791
(dp1792
g85
I1
ssS'mentor,'
p1793
(dp1794
g108
I1
ssS'program!'
p1795
(dp1796
NI4
ssS'program,'
p1797
(dp1798
g23
I1
sg1084
I2
sg1690
I1
ssS'success'
p1799
(dp1800
g89
I1
ssg665
(dp1801
S'mobile'
p1802
I1
sg1259
I1
sg474
I1
sg1355
I1
sg18
I1
ssS'confronting'
p1803
(dp1804
g60
I1
sg1755
I1
sg45
I2
sg26
I1
ssS'grows'
p1805
(dp1806
g207
I1
sg45
I1
sg211
I1
sg595
I1
sS'fast'
p1807
I1
ssS'entitled'
p1808
(dp1809
g23
I1
ssS'hank'
p1810
(dp1811
g583
I1
ssS'independent'
p1812
(dp1813
g60
I1
ssS'satellite'
p1814
(dp1815
S'photographs'
p1816
I1
sS'imagery'
p1817
I1
ssS'time...'
p1818
(dp1819
S':)'
p1820
I1
ssS'deceased,'
p1821
(dp1822
S'return'
p1823
I1
ssS'governors'
p1824
(dp1825
g23
I1
ssg1701
(dp1826
S'whenever'
p1827
I1
ssS'blames'
p1828
(dp1829
g45
I1
ssS'misery'
p1830
(dp1831
g89
I1
ssg773
(dp1832
g89
I1
sg860
I2
sNI1
sg348
I1
ssS'dark'
p1833
(dp1834
S'dungeons'
p1835
I4
ssS'faiths'
p1836
(dp1837
g162
I1
ssS'opportunity'
p1838
(dp1839
g23
I3
sg31
I1
ssg394
(dp1840
g60
I1
ssS'shelter'
p1841
(dp1842
g60
I2
sg31
I1
ssg602
(dp1843
S'vital'
p1844
I1
sNI1
sg26
I1
ssS'unconditionally'
p1845
(dp1846
S'forswear,'
p1847
I1
ssS'possessed'
p1848
(dp1849
g243
I2
ssS'paris,'
p1850
(dp1851
g187
I1
ssg346
(dp1852
g60
I1
sg23
I1
sg960
I1
sS'around'
p1853
I1
sg42
I1
sS'sufficient'
p1854
I1
sNI2
sg738
I1
sg27
I1
ssS'resuming'
p1855
(dp1856
g45
I1
ssS'greatest'
p1857
(dp1858
S'environmental'
p1859
I1
sS'fear'
p1860
I1
sS'benefit'
p1861
I1
sg251
I1
ssS'qualities'
p1862
(dp1863
g89
I1
ssg45
(dp1864
g1245
I1
sS'obligations'
p1865
I3
sS'demand'
p1866
I1
sS'highways'
p1867
I4
sg1278
I1
sS'decisions'
p1868
I1
sS'issues'
p1869
I1
sg1280
I1
sS'21st'
p1870
I8
sS'gulf'
p1871
I2
sS"'off'"
p1872
I1
sS'cloak'
p1873
I1
sg1318
I1
sS'environment'
p1874
I1
sg79
I41
sg1532
I5
sS'bombings'
p1875
I1
sg1290
I2
sS'resources'
p1876
I1
sg860
I3
sS'aljazeera.net'
p1877
I1
sS'founding'
p1878
I1
sg83
I1
sS'torture'
p1879
I1
sg87
I1
sg641
I1
sg650
I1
sS'choice'
p1880
I1
sS'worst'
p1881
I1
sS'nearly'
p1882
I1
sS'progress'
p1883
I2
sS'prime'
p1884
I1
sS'entire'
p1885
I1
sS'resolve'
p1886
I2
sg1327
I1
sS'issue'
p1887
I1
sS'sanctions'
p1888
I1
sS'violent'
p1889
I1
sS'standards'
p1890
I1
sS'science'
p1891
I3
sg1351
I1
sg172
I1
sg542
I1
sS'brave'
p1892
I2
sS'human'
p1893
I4
sS'catastrophic'
p1894
I1
sS'streets'
p1895
I1
sS'sign'
p1896
I1
sS'past'
p1897
I5
sg198
I1
sS'cost'
p1898
I2
sg598
I1
sS'11th'
p1899
I6
sg965
I1
sg1380
I3
sS'ground,'
p1900
I1
sg50
I2
sS'apparatus'
p1901
I2
sg1390
I1
sS'federal'
p1902
I1
sS'religious'
p1903
I1
sg1139
I1
sg233
I2
sS'current'
p1904
I1
sg235
I1
sS'state'
p1905
I1
sS'years,'
p1906
I2
sg241
I1
sg247
I2
sg1365
I1
sg671
I3
sg1464
I1
sg796
I1
sg1469
I3
sS'muslim'
p1907
I1
sg1471
I1
sS"nation's"
p1908
I2
sS'job'
p1909
I4
sg304
I1
sS'healing'
p1910
I1
sS'killing'
p1911
I1
sS'league'
p1912
I1
sg1071
I1
sg412
I14
sg964
I2
sS'region'
p1913
I4
sg302
I1
sS'brutal'
p1914
I1
sS'amount'
p1915
I1
sS'senator'
p1916
I3
sS'honor'
p1917
I1
sS"regime's"
p1918
I3
sS'duty'
p1919
I2
sg100
I2
sS'grecians'
p1920
I2
sS'war,'
p1921
I1
sg1543
I1
sS'fbi'
p1922
I1
sS'gratitude'
p1923
I1
sg411
I4
sg15
I1
sS'usa'
p1924
I1
sg1561
I1
sg955
I6
sS"world's"
p1925
I2
sS'next'
p1926
I6
sS'truth,'
p1927
I1
sS'dictator'
p1928
I10
sS'dangers'
p1929
I2
sS'borders'
p1930
I1
sS'loving'
p1931
I1
sg1601
I1
sS'homeland'
p1932
I1
sS'binding'
p1933
I1
sS'company'
p1934
I1
sS'infection'
p1935
I1
sS'pie'
p1936
I4
sg1605
I4
sS'stick'
p1937
I1
sS'systematic'
p1938
I1
sg107
I1
sS'smoking'
p1939
I1
sS'voices'
p1940
I4
sS'former'
p1941
I1
sS'1991'
p1942
I1
sg514
I1
sS'danger,'
p1943
I1
sS'might'
p1944
I2
sg492
I2
sS'1990s,'
p1945
I1
sg407
I4
sg529
I4
sg265
I2
sS'situation'
p1946
I2
sS'remains'
p1947
I1
sS'program'
p1948
I1
sg553
I1
sS'purposes'
p1949
I1
sg1715
I3
sS'middle'
p1950
I15
sg1763
I2
sS'council'
p1951
I1
sS'paychecks'
p1952
I1
sg588
I1
sS'needs'
p1953
I2
sS'united'
p1954
I63
sg489
I3
sS'harsh'
p1955
I1
sS'demands'
p1956
I1
sS'same'
p1957
I5
sS'very'
p1958
I2
sS'largest'
p1959
I1
sg349
I1
sS'economy'
p1960
I3
sg1814
I1
sS'oil'
p1961
I2
sg849
I1
sS'permanent'
p1962
I1
sS'moment'
p1963
I2
sg244
I2
sS'purpose'
p1964
I2
sS'harm'
p1965
I1
sS'opinion'
p1966
I1
sg456
I1
sS'destructive'
p1967
I1
sg1838
I1
sS'early'
p1968
I2
sS'iraqis'
p1969
I1
sS'region.'
p1970
I1
sg715
I1
sS'costs'
p1971
I1
sS'responsibility'
p1972
I1
sS'ultimate'
p1973
I1
sg1862
I1
sS'truce'
p1974
I1
sS'scientists'
p1975
I1
sS'weakest'
p1976
I1
sS'help'
p1977
I2
sg1047
I3
sg661
I1
sS'money'
p1978
I1
sS'mission'
p1979
I1
sS'course'
p1980
I3
sS'civilized'
p1981
I4
sS'tyrant'
p1982
I1
sS'facts'
p1983
I2
sS'pentagon,'
p1984
I1
sS'tollbooth'
p1985
I6
sS'continent'
p1986
I1
sS'bill,'
p1987
I1
sg1263
I5
sS'character'
p1988
I1
sS'coordinates'
p1989
I1
sg1070
I1
sS'source'
p1990
I1
sg753
I2
sg1603
I4
sS'citizen'
p1991
I1
sS'contrary'
p1992
I2
sS'decades'
p1993
I1
sS'remaining'
p1994
I1
sS'world,'
p1995
I6
sS'designs'
p1996
I2
sg592
I1
sS'emergency'
p1997
I1
sS'richness'
p1998
I1
sS'food'
p1999
I1
sS'disarmament'
p2000
I2
sg812
I1
sS'history,'
p2001
I1
sg1833
I4
sS'department'
p2002
I3
sS'suffering'
p2003
I2
sS'taliban'
p2004
I1
sg162
I1
sS'deployment'
p2005
I1
sg200
I44
sg116
I4
sS'fatherless,'
p2006
I1
sS'necessary'
p2007
I1
sg1799
I1
sS'miracle'
p2008
I1
sS'possibilities'
p2009
I1
sg1861
I1
sg858
I1
sg1123
I11
sS'domain'
p2010
I1
sS'najaf'
p2011
I1
sg1374
I1
sS'weight'
p2012
I1
sg962
I15
sS'house'
p2013
I1
sS'pursuits'
p2014
I1
sS'authority'
p2015
I1
sg618
I1
sS'persian'
p2016
I4
sS'1990s'
p2017
I1
sS'duration'
p2018
I1
sg261
I2
sg71
I2
sS'enemies'
p2019
I1
sg180
I1
sS'sanity'
p2020
I1
sS'caribbean'
p2021
I1
sg250
I4
sS'bottom'
p2022
I1
sS'creative'
p2023
I1
sS'repression'
p2024
I1
sS'safety'
p2025
I3
sS'deficit'
p2026
I1
sS'internet'
p2027
I8
sg709
I1
sS'honorable'
p2028
I1
sg1039
I2
sS'fbi,'
p2029
I1
sS'm1a2'
p2030
I1
sS'run'
p2031
I2
sS'bold'
p2032
I1
sg251
I4
sS'reach'
p2033
I1
sS'universe!'
p2034
I1
sg951
I1
sS'congress,'
p2035
I1
sg971
I1
sg105
I5
sg1051
I2
sS'nonnegotiable'
p2036
I1
sS'training'
p2037
I1
sS'actual'
p2038
I1
sS'attacks'
p2039
I5
sS'freedom'
p2040
I1
sS'certainty'
p2041
I1
sg998
I1
sS'british'
p2042
I1
sS'ideology'
p2043
I1
sS'sake'
p2044
I1
sg1102
I13
sg69
I14
sS'20th'
p2045
I6
sg1040
I9
sS'5th'
p2046
I1
sS'first'
p2047
I9
sg1014
I4
sS'presence'
p2048
I1
sS'instruments'
p2049
I2
sS'carrot'
p2050
I1
sS'number'
p2051
I1
sS'facility'
p2052
I1
sS'right'
p2053
I12
sS'promise'
p2054
I1
sg1073
I1
sS'homeless'
p2055
I1
sS'invasion'
p2056
I1
sS'worst,'
p2057
I1
sS'size'
p2058
I1
sS'regime,'
p2059
I1
sS'risk,'
p2060
I1
sS'question'
p2061
I4
sS'sovereign'
p2062
I1
sS'least'
p2063
I1
sg1435
I2
sS'gibraltar'
p2064
I1
sg120
I1
sS'uss'
p2065
I1
sg1545
I9
sS'merciless'
p2066
I1
sS'low'
p2067
I3
sS'oilforfood'
p2068
I1
sS'head'
p2069
I1
sg593
I3
sS'form'
p2070
I1
sS'differences'
p2071
I4
sS'manmade'
p2072
I1
sg1575
I1
sS'link'
p2073
I1
sg784
I1
sS'hopes'
p2074
I3
sS'technologies'
p2075
I2
sg1105
I2
sS'kind'
p2076
I2
sS'final'
p2077
I2
sS'future'
p2078
I4
sS'marriage'
p2079
I1
sS'risks'
p2080
I2
sg555
I1
sS'problem'
p2081
I1
sS'emir'
p2082
I1
sS'logic,'
p2083
I1
sS'age'
p2084
I2
sS'earth,'
p2085
I1
sS'gravest'
p2086
I2
sg1516
I2
sS'150'
p2087
I1
sS'constant'
p2088
I1
sS'universal'
p2089
I1
sS'ages'
p2090
I1
sS'al'
p2091
I1
sS'evidence'
p2092
I2
sg1636
I1
sg548
I2
sS'goodness'
p2093
I1
sg816
I2
sS'politics'
p2094
I3
sNI1
sg800
I15
sS'affairs'
p2095
I1
sg343
I1
sS'general'
p2096
I1
sg584
I10
sS'other'
p2097
I1
sg346
I1
sg369
I1
sS'income'
p2098
I1
sg121
I1
sS'inspectors,'
p2099
I1
sS'korean'
p2100
I2
sS'unfair'
p2101
I1
sS'facts,'
p2102
I1
sg1857
I2
sS'peace,'
p2103
I3
sS'fundamental'
p2104
I2
sS'beginnings'
p2105
I1
sS'20th,'
p2106
I4
sS'oppression'
p2107
I1
sg1199
I1
sg1292
I1
sS'most'
p2108
I10
sS'meaning'
p2109
I1
sg1739
I3
sS'shareholder'
p2110
I1
sS'persecution'
p2111
I1
sS'spice,'
p2112
I1
sg34
I3
sg1213
I1
sS'peaceful'
p2113
I1
sS'afflicted,'
p2114
I1
sS'longer'
p2115
I1
sS'oath'
p2116
I2
sS'average'
p2117
I1
sg213
I1
sS'hungry'
p2118
I1
sS'rule'
p2119
I1
sS'face'
p2120
I1
sg1148
I1
sg1239
I1
sg725
I6
sg389
I4
sg263
I1
sS'institutions'
p2121
I1
sS'fact'
p2122
I3
sg465
I1
ssS'camps'
p2123
(dp2124
g42
I1
ssS'corporate'
p2125
(dp2126
S'scandals'
p2127
I1
sg405
I1
ssg1759
(dp2128
g243
I1
sg60
I1
sg1065
I1
ssS'unified'
p2129
(dp2130
g15
I2
ssS'endless'
p2131
(dp2132
S'lawsuits'
p2133
I1
ssg1684
(dp2134
g45
I1
sg42
I1
ssS'appease'
p2135
(dp2136
S'murderous'
p2137
I1
ssg1047
(dp2138
g60
I1
sg1494
I5
sg1566
I1
sg643
I2
sS'means'
p2139
I1
sg1956
I3
sg187
I6
sS'wondering'
p2140
I1
sS'following'
p2141
I1
sg45
I1
sg1039
I1
ssS'unemployment'
p2142
(dp2143
S'rising,'
p2144
I1
ssS'bush,'
p2145
(dp2146
S'interview'
p2147
I1
sS'cnbc,'
p2148
I1
sg782
I1
sS'1989when'
p2149
I1
ssg2101
(dp2150
S'double'
p2151
I1
ssS'fighters'
p2152
(dp2153
g60
I1
ssS'devoiced'
p2154
(dp2155
g188
I1
ssS'bugged'
p2156
(dp2157
S'hotel'
p2158
I1
ssS'thanks'
p2159
(dp2160
g31
I1
ssg1893
(dp2161
S'dignity'
p2162
I3
sg98
I1
sS'cloning'
p2163
I1
sS'dignity,'
p2164
I2
sg514
I4
sS'rights,'
p2165
I3
sg732
I4
sg233
I3
ssg1983
(dp2166
g89
I1
sS'says'
p2167
I3
sS'lead'
p2168
I1
ssg1389
(dp2169
g23
I1
ssg990
(dp2170
g204
I1
sg85
I1
sg31
I2
sg434
I2
sS"it's"
p2171
I1
sg55
I1
sg23
I1
sS"there's"
p2172
I1
sS"we're"
p2173
I1
sg45
I1
sg27
I1
ssg852
(dp2174
S'bugged,'
p2175
I1
ssg1688
(dp2176
g592
I1
ssS'enters'
p2177
(dp2178
g434
I1
ssS'endangered'
p2179
(dp2180
g45
I1
ssg1988
(dp2181
g89
I1
ssS'defied'
p2182
(dp2183
g322
I1
sg1123
I1
ssS'belongs'
p2184
(dp2185
g23
I1
ssS'easy'
p2186
(dp2187
g431
I1
ssS'technological'
p2188
(dp2189
S'capabilities,'
p2190
I1
ssS'student,'
p2191
(dp2192
g679
I1
ssS'east'
p2193
(dp2194
g60
I2
sg23
I1
sS'africa'
p2195
I1
sg296
I1
sg89
I1
sg584
I1
sNI2
ssS'expelled'
p2196
(dp2197
g960
I1
ssS'gave'
p2198
(dp2199
g531
I1
ssS'ago,'
p2200
(dp2201
g531
I1
sg85
I1
sg683
I1
sg45
I1
sg15
I1
sg187
I1
ssS'comprehensive'
p2202
(dp2203
S'energy'
p2204
I1
sS'settlement'
p2205
I1
sS'plan'
p2206
I1
ssS"shi'a,"
p2207
(dp2208
S'sunnis,'
p2209
I1
sg1596
I1
ssS'hope,'
p2210
(dp2211
g1194
I5
ssS'fact,'
p2212
(dp2213
g162
I1
ssS'posed'
p2214
(dp2215
g752
I1
ssg1702
(dp2216
g411
I1
sg1282
I1
sNI2
ssS'possibly'
p2217
(dp2218
g771
I1
ssS'birth'
p2219
(dp2220
g60
I1
ssS'judge'
p2221
(dp2222
S'napolitano'
p2223
I1
ssg1732
(dp2224
NI1
ssS'advanced'
p2225
(dp2226
g374
I2
ssS'occurring'
p2227
(dp2228
NI1
ssS'desire'
p2229
(dp2230
NI1
ssg2162
(dp2231
S'shared'
p2232
I1
sg86
I1
sNI1
ssS'gift'
p2233
(dp2234
g23
I2
sg960
I1
ssS'states,'
p2235
(dp2236
g19
I1
ssS'hunt'
p2237
(dp2238
g31
I1
ssg556
(dp2239
g60
I2
sg23
I1
sg85
I1
sg431
I1
sg162
I1
sS'rebuild'
p2240
I1
sg45
I1
sg214
I1
ssg751
(dp2241
g60
I1
ssS'squandered'
p2242
(dp2243
S'lives,'
p2244
I1
ssS'offices'
p2245
(dp2246
g89
I1
ssg1722
(dp2247
NI3
ssS'justice,'
p2248
(dp2249
g1372
I1
ssS'worse,'
p2250
(dp2251
g31
I1
ssg1123
(dp2252
g60
I1
sg1182
I1
sg643
I4
sg26
I1
sg19
I1
sg89
I4
sg86
I3
sg42
I1
sg1121
I1
sS'council,'
p2253
I4
sS'defended'
p2254
I1
sg407
I1
sg23
I1
sg1367
I1
sg340
I1
sg1951
I25
sS'personnel'
p2255
I1
sNI3
sg24
I2
ssS'starvation'
p2256
(dp2257
NI1
ssg2053
(dp2258
g1552
I1
sS'places'
p2259
I1
sg23
I1
sg89
I1
sg962
I1
sg603
I4
sg1195
I4
sg964
I1
sg487
I1
sNI2
sS"that's"
p2260
I1
ssg353
(dp2261
g60
I1
sg23
I1
ssg962
(dp2262
g60
I6
sS'living'
p2263
I1
sg1999
I1
sg86
I1
sg182
I6
sNI24
sg2003
I1
sS'everywhere'
p2264
I1
sg340
I3
sg296
I2
sg42
I2
sg487
I2
sg19
I1
sg990
I1
sg477
I1
sg132
I1
sg960
I1
sg89
I10
sg2240
I1
sS"they've"
p2265
I1
sg41
I1
sg752
I1
sg407
I2
sg23
I2
sg1532
I1
sg361
I4
sg620
I1
sg583
I1
ssg813
(dp2266
NI1
ssS'dead'
p2267
(dp2268
NI1
ssg1629
(dp2269
g23
I1
sS'today'
p2270
I1
sg42
I1
ssg2019
(dp2271
g1532
I1
sg171
I2
sg440
I1
sg583
I1
sNI1
sS'dare'
p2272
I1
ssS'denies'
p2273
(dp2274
g162
I1
ssS'tonight,'
p2275
(dp2276
g683
I2
sg187
I1
sS'let'
p2277
I1
ssS'oppressive'
p2278
(dp2279
g800
I1
ssg31
(dp2280
g434
I2
sg322
I5
sS'everyone'
p2281
I1
sS'myself,'
p2282
I1
sg1579
I4
sS'seizing'
p2283
I1
sg55
I9
sg1255
I2
sg269
I2
sg582
I2
sS'governor'
p2284
I1
sg1893
I1
sg42
I1
sg372
I2
sS'conventions'
p2285
I1
sS'children'
p2286
I2
sg1387
I1
sg1421
I1
sS'humanity,'
p2287
I1
sg411
I1
sg244
I1
sS'women,'
p2288
I1
sg374
I2
sg584
I2
sg233
I1
sg599
I2
sg119
I1
sg151
I4
sS'health'
p2289
I1
sg676
I2
sg15
I1
sg261
I1
sS'terrorism'
p2290
I2
sg219
I5
sS'supporting'
p2291
I1
sg581
I2
sg1082
I1
sg26
I5
sg1999
I1
sS'gas'
p2292
I1
sg667
I1
sg958
I1
sS'instance,'
p2293
I1
sg456
I3
sg18
I1
sg583
I4
sS'predecessors'
p2294
I1
sg243
I8
sg1755
I1
sg757
I1
sg76
I1
sS'missions'
p2295
I1
sg200
I1
sS'himself,'
p2296
I1
sg533
I2
sg520
I1
sg1675
I1
sg735
I5
sg134
I2
sg2078
I1
sg778
I2
sS'either'
p2297
I1
sS'2004'
p2298
I1
sg858
I1
sg45
I32
sg70
I1
sS'blackmail,'
p2299
I1
sg531
I1
sS'battered'
p2300
I1
ssg2022
(dp2301
S'line'
p2302
I1
ssS'unavoidable'
p2303
(dp2304
NI2
ssS'quantities,'
p2305
(dp2306
g134
I1
ssg2023
(dp2307
S'gifts'
p2308
I1
ssg2024
(dp2309
g89
I2
sg86
I1
ssg1300
(dp2310
g23
I1
sg42
I2
ssS'asking'
p2311
(dp2312
g581
I1
ssS'month,'
p2313
(dp2314
g45
I1
ssS'supervised'
p2315
(dp2316
S'elections'
p2317
I1
ssS'steps'
p2318
(dp2319
g23
I1
sg340
I1
sg171
I1
ssS'beating'
p2320
(dp2321
g60
I1
ssS'purchases,'
p2322
(dp2323
g414
I1
ssg2032
(dp2324
g2318
I1
sNI1
ssg2190
(dp2325
g531
I1
sg752
I1
ssS'burn'
p2326
(dp2327
g1392
I1
sg211
I1
ssg1788
(dp2328
S'anyone'
p2329
I1
sg243
I1
sg45
I1
sNI1
ssg1868
(dp2330
g89
I1
ssS'losing'
p2331
(dp2332
S'fine'
p2333
I1
ssg292
(dp2334
g23
I3
sg45
I1
sg752
I1
ssg1748
(dp2335
g23
I1
sg1392
I1
sg525
I1
ssS'chapter'
p2336
(dp2337
g89
I12
ssg2039
(dp2338
g132
I3
sg340
I1
sg42
I1
sg89
I4
sg45
I1
sNI3
ssS'theirs'
p2339
(dp2340
NI1
sg620
I1
ssS'dollars'
p2341
(dp2342
g42
I1
ssg1566
(dp2343
S'ago,'
p2344
I1
sg657
I1
ssg1971
(dp2345
g89
I1
sg1068
I1
ssg806
(dp2346
g930
I1
ssS'pollutionfree'
p2347
(dp2348
NI1
ssS'commit'
p2349
(dp2350
S'15'
p2351
I1
sS'extremely'
p2352
I1
sg571
I1
ssS'efforts'
p2353
(dp2354
g60
I1
sg23
I4
ssS'palestinians'
p2355
(dp2356
g819
I1
ssg1224
(dp2357
g1313
I1
ssS'nerve'
p2358
(dp2359
g2292
I1
sS'gas,'
p2360
I1
sS'agent'
p2361
I1
ssS'raised'
p2362
(dp2363
S'legitimate'
p2364
I1
sg42
I3
ssS'statements'
p2365
(dp2366
g752
I1
ssg2048
(dp2367
g89
I1
ssS'pays'
p2368
(dp2369
g219
I1
sg2098
I1
ssS'prisoners'
p2370
(dp2371
g89
I1
sg960
I1
sNI1
sg296
I1
sg42
I1
ssS'sparing'
p2372
(dp2373
g1603
I1
ssg1925
(dp2374
g2108
I2
ssg504
(dp2375
g204
I4
sg45
I4
sg42
I4
ssS'fumes'
p2376
(dp2377
NI1
ssS'balanced'
p2378
(dp2379
g555
I1
ssg2017
(dp2380
NI1
sg26
I1
ssS'reducing'
p2381
(dp2382
g45
I1
sg1866
I1
ssg226
(dp2383
g60
I2
sNI1
ssg745
(dp2384
g243
I3
sg23
I1
sg60
I1
sg244
I1
sg960
I1
sg31
I3
sg45
I2
ssS'legislation'
p2385
(dp2386
g26
I1
ssS'transform'
p2387
(dp2388
S'america,'
p2389
I1
ssg1435
(dp2390
g243
I4
sg31
I2
sg42
I1
sg434
I1
sg19
I1
sg41
I2
ssS'authorized'
p2391
(dp2392
g23
I1
ssg120
(dp2393
g23
I4
sg85
I1
sg55
I1
sg162
I1
ssS'build,'
p2394
(dp2395
g60
I1
ssS'rulz!'
p2396
(dp2397
NI1
ssg40
(dp2398
g769
I1
sg2362
I3
sg2053
I1
sS'disrespectful'
p2399
I1
sS'coming'
p2400
I1
sg108
I3
sS'founded'
p2401
I1
sg1498
I1
sS'eight'
p2402
I1
sS'allowed'
p2403
I1
sNI1
sg290
I1
sg243
I2
sg625
I1
sg1338
I1
sg1689
I1
sg1690
I1
sg1629
I2
sg1047
I1
sg1176
I1
sg735
I1
sS'looking'
p2404
I1
sg23
I1
sg1455
I1
sg1296
I1
sS'compromised.'
p2405
I1
sg312
I1
sg45
I1
sg1712
I1
ssg1545
(dp2406
g60
I1
sg132
I4
sg405
I2
sg296
I2
sS'personnel,'
p2407
I1
sg348
I1
sg2255
I1
sg86
I8
sg879
I1
sg40
I1
sg41
I4
sg23
I1
sg889
I1
sS'goes'
p2408
I1
sg42
I3
sg45
I1
sS'comes,'
p2409
I1
sNI4
sg431
I1
sg37
I1
ssS'happy'
p2410
(dp2411
g19
I1
ssg2069
(dp2412
g89
I1
ssS'1990,'
p2413
(dp2414
g657
I1
ssg480
(dp2415
S'younger'
p2416
I1
ssS'attempted'
p2417
(dp2418
g23
I3
ssg2071
(dp2419
g1251
I4
ssg2072
(dp2420
g773
I1
ssS'lie,'
p2421
(dp2422
g45
I1
ssS'peninsula'
p2423
(dp2424
g60
I1
ssS'failure'
p2425
(dp2426
g23
I1
sNI1
ssS'hear'
p2427
(dp2428
g502
I1
sg1484
I1
sg45
I1
sg676
I1
ssS'sustained'
p2429
(dp2430
S'commitment'
p2431
I1
ssS'removed'
p2432
(dp2433
NI1
sg960
I1
ssS'outside'
p2434
(dp2435
g45
I3
ssS'responding'
p2436
(dp2437
g23
I1
ssS'builds'
p2438
(dp2439
S'alliances'
p2440
I1
ssS'emboldened'
p2441
(dp2442
g800
I1
ssS'maximum'
p2443
(dp2444
g1108
I1
ssS'tell'
p2445
(dp2446
S'people,'
p2447
I1
sg45
I1
sg55
I3
sg735
I2
ssg924
(dp2448
S'pressure'
p2449
I1
sS'growth,'
p2450
I1
sg1888
I2
sS'liberty,'
p2451
I1
sS'sanctions,'
p2452
I1
sg233
I1
sg1009
I1
ssS'torturing'
p2453
(dp2454
g2286
I1
ssS'pontificate'
p2455
(dp2456
S'less,'
p2457
I3
ssg1457
(dp2458
g45
I1
ssg2082
(dp2459
g89
I1
ssS'democratic'
p2460
(dp2461
S'palestine'
p2462
I1
sS'afghanistan'
p2463
I1
sS'palestine,'
p2464
I2
ssg2087
(dp2465
S'kilometers'
p2466
I1
ssS'strengthening'
p2467
(dp2468
S'medicare'
p2469
I1
ssS'proven'
p2470
(dp2471
S'instead'
p2472
I1
ssg2092
(dp2473
g577
I1
sg960
I1
sg26
I5
sNI2
sg89
I1
ssg1716
(dp2474
g446
I3
ssg216
(dp2475
NI1
ssS'promised'
p2476
(dp2477
g581
I1
sg69
I1
ssS'anthrax'
p2478
(dp2479
g60
I2
sg631
I1
ssg2206
(dp2480
g407
I2
sg23
I1
sg31
I1
sg26
I4
sg1081
I1
sg86
I1
ssS'prisoners,'
p2481
(dp2482
S'providing'
p2483
I1
ssN(dp2484
S'thomas'
p2485
I1
sg1047
I6
sg261
I1
sg722
I2
sg2145
I4
sg322
I4
sS'laura'
p2486
I3
sg2154
I1
sg1438
I1
sS'unfortunately,'
p2487
I1
sg990
I7
sS'secretly,'
p2488
I1
sg290
I5
sg487
I1
sS'thank'
p2489
I2
sS"he's"
p2490
I6
sS"we've"
p2491
I8
sg1084
I1
sg1019
I3
sg79
I4
sS'black'
p2492
I1
sg66
I1
sg48
I1
sS'real'
p2493
I1
sg621
I2
sg269
I1
sS'government'
p2494
I1
sS'wives'
p2495
I1
sS'vancouver,'
p2496
I1
sg90
I2
sg162
I15
sg2221
I1
sS'during'
p2497
I2
sS'but,'
p2498
I1
sg86
I1
sg142
I1
sg643
I2
sS'yesterday,'
p2499
I1
sg157
I1
sS'facing'
p2500
I1
sg434
I30
sg1348
I1
sg1645
I1
sS'adversity'
p2501
I1
sg542
I1
sS'seniors'
p2502
I1
sS'twelve'
p2503
I2
sg2010
I1
sg188
I2
sg180
I1
sg962
I1
sg1382
I2
sg223
I9
sS'yeah'
p2504
I1
sg340
I2
sS'year'
p2505
I1
sg372
I24
sS'instead,'
p2506
I1
sg207
I1
sS'tonight,'
p2507
I2
sg129
I2
sg1755
I1
sg31
I7
sg1902
I1
sg1299
I4
sg233
I1
sg531
I15
sg130
I7
sg1402
I5
sg2289
I1
sS'washington,'
p2508
I1
sg238
I1
sS'tens'
p2509
I1
sg389
I1
sS'neither'
p2510
I1
sg27
I1
sS'freed'
p2511
I1
sS'knowing'
p2512
I1
sg85
I70
sS'jobs'
p2513
I1
sS'bukethead'
p2514
I1
sS'\x02more'
p2515
I1
sS'delegates'
p2516
I1
sg958
I2
sS'understanding'
p2517
I1
sg1051
I2
sS'imagine'
p2518
I1
sg486
I1
sg15
I12
sg752
I8
sS'sending'
p2519
I1
sg412
I4
sg533
I9
sg1736
I1
sS'US'
p2520
I1
sg590
I3
sg69
I1
sS"i'm"
p2521
I6
sg1014
I1
sg1679
I2
sS'ladies'
p2522
I1
sS'alliance'
p2523
I1
sg1263
I1
sS'whatever'
p2524
I1
sg108
I6
sg504
I3
sg2053
I1
sg582
I4
sg1036
I1
sS'rarely'
p2525
I3
sS'pentagon'
p2526
I1
sg76
I2
sg1387
I1
sS'now,'
p2527
I2
sg34
I12
sg960
I3
sg23
I15
sS"it's"
p2528
I35
sg706
I13
sg664
I1
sS'2'
p2529
I1
sS"we're"
p2530
I4
sg2113
I1
sg1592
I1
sg1545
I3
sg2270
I1
sg219
I7
sS'you,'
p2531
I1
sg1601
I5
sS"i've"
p2532
I5
sS'yeah..'
p2533
I1
sg1753
I8
sS'approving'
p2534
I1
sg2425
I1
sg1068
I1
sS'amenra'
p2535
I1
sg571
I1
sg19
I6
sg676
I1
sg37
I18
sS'and,'
p2536
I2
sg509
I1
sS'unlike'
p2537
I1
sS'whether'
p2538
I4
sS'clearly,'
p2539
I1
sg407
I1
sg214
I1
sS'\x02your'
p2540
I1
sg538
I2
sg70
I8
sg60
I71
sg1571
I2
sS'trusting'
p2541
I1
sS"didn't"
p2542
I1
sg55
I29
sg2092
I1
sg295
I5
sS'well,'
p2543
I1
sg187
I12
sg592
I1
sS'drug'
p2544
I1
sg42
I47
sS'first,'
p2545
I1
sS"iraq's"
p2546
I4
sS'iranians,'
p2547
I1
sg151
I1
sg96
I34
sg134
I12
sg1355
I1
sg1954
I1
sg133
I2
sg26
I7
sg211
I6
sS'yeah,'
p2548
I1
sS'hijackings'
p2549
I1
sg616
I3
sS'recognizing'
p2550
I1
sS'strange'
p2551
I1
sg422
I1
sS'"however'
p2552
I1
sg2472
I4
sg583
I13
sg732
I1
sS'events'
p2553
I1
sg1810
I1
sg901
I1
sg1814
I1
sg250
I1
sg1444
I3
sg657
I5
sS"let's"
p2554
I1
sg2402
I1
sg1624
I1
sg1303
I2
sS'14,'
p2555
I2
sg132
I5
sg45
I105
sg243
I8
sS'lower'
p2556
I1
sg683
I70
sS'maybe'
p2557
I1
sg329
I1
sg1758
I1
sg1738
I1
sS'digitaglobe'
p2558
I1
sS'yet,'
p2559
I3
sg778
I3
sg1740
I1
sS"that's"
p2560
I4
sS'once'
p2561
I2
ssS'agents,'
p2562
(dp2563
g60
I2
sg1275
I1
sg397
I1
ssg800
(dp2564
g331
I1
sg85
I1
sg585
I1
sg26
I4
sS'defies'
p2565
I1
sS'agreed'
p2566
I3
sS'continues'
p2567
I1
sS'cooperate'
p2568
I1
sS'wishes'
p2569
I5
sg2156
I1
sg340
I1
sg296
I1
sg42
I2
sNI2
sS'change'
p2570
I1
sg477
I2
sg1492
I1
sg204
I1
sg1289
I1
sg1748
I1
sS'rules'
p2571
I1
sg365
I1
sS'admitted'
p2572
I1
sg776
I1
sg407
I5
sg23
I2
sS'itself'
p2573
I1
sg1320
I1
sg246
I1
sg484
I1
sg348
I7
sg40
I3
sg86
I7
sg2561
I1
ssS'scudtype'
p2574
(dp2575
g1067
I1
ssS'dying'
p2576
(dp2577
g800
I1
ssg133
(dp2578
g1758
I2
sg2092
I5
sS'coverage'
p2579
I1
sg1589
I1
sS'regard'
p2580
I1
sg94
I1
sS'certainty,'
p2581
I1
sg2109
I1
sS'defense'
p2582
I1
sg1893
I1
sS'ambition'
p2583
I1
sg103
I1
sg108
I2
sS'refuge'
p2584
I1
sS'illusions'
p2585
I1
sg244
I1
sg2115
I4
sg23
I1
sS"it's"
p2586
I1
sS'medicines'
p2587
I1
sg584
I3
sg118
I1
sg956
I1
sS'limit'
p2588
I2
sg853
I1
sg2186
I1
sg497
I1
sg565
I1
sg1534
I1
sS'outcome'
p2589
I1
sg684
I1
sg219
I8
ssS'stake'
p2590
(dp2591
g42
I1
sg108
I1
ssg211
(dp2592
g1014
I1
sg85
I1
sg296
I1
sS"he's"
p2593
I3
sg683
I2
sS'appropriate,'
p2594
I1
sg962
I4
sg55
I3
sg773
I1
sg571
I1
sg134
I1
sg582
I1
sg162
I2
sg372
I1
sg45
I3
sg583
I3
sS"i'm"
p2595
I6
ssS'husbands,'
p2596
(dp2597
g2286
I1
ssS'antidrug'
p2598
(dp2599
S'education'
p2600
I1
ssS'setting'
p2601
(dp2602
g1551
I1
ssg369
(dp2603
S'models'
p2604
I1
sg89
I1
ssS'holding'
p2605
(dp2606
g2125
I1
ssg121
(dp2607
g89
I1
sS'behind'
p2608
I1
sNI4
sg290
I1
ssS'hydrogenpowered'
p2609
(dp2610
S'automobiles'
p2611
I1
ssS'realize'
p2612
(dp2613
g616
I4
sg706
I1
ssS'founding,'
p2614
(dp2615
g60
I1
sg431
I1
ssS'permitting'
p2616
(dp2617
g45
I1
ssg2604
(dp2618
NI1
ssg1481
(dp2619
g331
I1
sg85
I1
sg34
I1
sg340
I1
sg621
I1
sg683
I1
sg15
I1
sS'two'
p2620
I1
sS'dont'
p2621
I1
ssS'welcome'
p2622
(dp2623
NI1
ssS'uniformly'
p2624
(dp2625
g2182
I1
ssg2554
(dp2626
g486
I1
ssS'unaccounted'
p2627
(dp2628
g31
I1
ssS'shared,'
p2629
(dp2630
g60
I1
ssg2111
(dp2631
g89
I2
ssS'lifeextending'
p2632
(dp2633
S'drugs,'
p2634
I1
ssS'promise,'
p2635
(dp2636
S'spending'
p2637
I1
ssS"'i"
p2638
(dp2639
S"don't"
p2640
I4
ssS'billion'
p2641
(dp2642
g23
I1
sg722
I2
sg42
I2
ssg2416
(dp2643
S'workers'
p2644
I1
ssg2115
(dp2645
g243
I1
sg60
I1
sg1062
I1
sg42
I1
sg85
I1
sS'live'
p2646
I1
ssg491
(dp2647
g434
I1
sg45
I1
sg26
I2
ssS'commenced'
p2648
(dp2649
g24
I1
ssg524
(dp2650
g23
I2
sNI1
ssS'withhold'
p2651
(dp2652
g1739
I1
ssS'uncovered'
p2653
(dp2654
g60
I1
ssg725
(dp2655
g60
I1
sg85
I1
sg31
I1
sg89
I3
sNI7
sg211
I4
sS'armed'
p2656
I1
sg1994
I1
sS'debating'
p2657
I1
ssS'serious'
p2658
(dp2659
g60
I1
sg1219
I1
sg49
I1
sg1929
I1
ssS'laws'
p2660
(dp2661
NI1
ssg1136
(dp2662
NI2
ssg1937
(dp2663
g89
I1
ssS'neighbors'
p2664
(dp2665
g60
I1
sNI1
ssS'mydomain'
p2666
(dp2667
g348
I1
sS'servers.'
p2668
I1
ssg464
(dp2669
g2622
I1
ssg1820
(dp2670
NI1
ssg888
(dp2671
g187
I1
sNI1
ssS'global'
p2672
(dp2673
g1257
I1
sg1545
I2
sS'treaties'
p2674
I1
ssS'focus'
p2675
(dp2676
g60
I1
sg132
I1
sg45
I1
ssg2486
(dp2677
g60
I3
ssS'documents,'
p2678
(dp2679
g749
I1
ssS'grateful'
p2680
(dp2681
NI1
ssS'battle'
p2682
(dp2683
g86
I1
ssg237
(dp2684
g60
I1
ssS'idealism'
p2685
(dp2686
g60
I1
ssS'suckles'
p2687
(dp2688
g317
I3
ssg1870
(dp2689
S'century'
p2690
I8
ssg1687
(dp2691
NI1
ssS'depend'
p2692
(dp2693
g132
I4
ssS'deceitful'
p2694
(dp2695
S'dictators'
p2696
I1
ssS'foe'
p2697
(dp2698
g446
I1
ssg1874
(dp2699
g60
I1
sNI1
sg42
I1
ssg79
(dp2700
S'regime,'
p2701
I2
sg917
I1
sS'troops'
p2702
I1
sg962
I9
sg850
I1
sg374
I2
sg640
I2
sS'dissidents'
p2703
I1
sg1333
I1
sg1791
I1
sS'officials'
p2704
I2
sg1928
I1
sg1382
I3
sg9
I5
sg1123
I1
sS"regime's"
p2705
I1
sS'refugees'
p2706
I1
sg800
I26
ssS'finally'
p2707
(dp2708
g2572
I1
ssS'bombs,'
p2709
(dp2710
g60
I1
ssS'selfgovernment'
p2711
(dp2712
g23
I1
ssS'cleaner,'
p2713
(dp2714
g60
I1
ssg48
(dp2715
g60
I6
sS'states'
p2716
I1
sg906
I1
sg694
I1
sg1264
I1
sNI7
sg86
I1
sg41
I1
ssS'suffered'
p2717
(dp2718
g1068
I1
ssg1777
(dp2719
S'sick'
p2720
I3
ssS'division'
p2721
(dp2722
g42
I1
ssg1952
(dp2723
g89
I1
sNI1
ssS'advantage'
p2724
(dp2725
NI1
ssS'defined,'
p2726
(dp2727
g60
I1
ssS'keeping'
p2728
(dp2729
g581
I1
ssg1880
(dp2730
g89
I1
sg86
I2
sNI1
ssg1227
(dp2731
g31
I1
sS'reform'
p2732
I1
ssg2611
(dp2733
NI1
ssS'tanks'
p2734
(dp2735
NI1
ssS'advised'
p2736
(dp2737
g23
I1
ssS'neighbor,'
p2738
(dp2739
g348
I1
ssg2496
(dp2740
S'wash.,'
p2741
I1
ssS'denounced'
p2742
(dp2743
S'interracial'
p2744
I1
sg55
I1
sS'anticatholic'
p2745
I1
ssS'respiratory'
p2746
(dp2747
g2425
I1
ssS'poor,'
p2748
(dp2749
g2492
I1
ssS'bring'
p2750
(dp2751
g243
I1
sg23
I2
sg2040
I1
sg1225
I1
sS'mentors'
p2752
I1
sg571
I1
sg151
I1
sg1532
I1
sS'sudden'
p2753
I1
sg372
I1
sS'destruction'
p2754
I1
ssg622
(dp2755
g359
I2
sg1303
I1
sg85
I1
sS'act,'
p2756
I1
sg1311
I1
ssg1757
(dp2757
g1392
I1
ssS'fragile'
p2758
(dp2759
S'people,'
p2760
I1
ssS'gun'
p2761
(dp2762
NI1
sg26
I1
ssg1890
(dp2763
g89
I2
ssg493
(dp2764
g15
I2
sS'iraq,'
p2765
I1
ssS'solved'
p2766
(dp2767
g19
I1
ssS'planning'
p2768
(dp2769
g31
I1
ssS'iraq,'
p2770
(dp2771
g16
I1
sg23
I1
sg85
I2
sg778
I1
sg42
I1
sg45
I2
sg706
I1
sS'except'
p2772
I1
ssS'tough,'
p2773
(dp2774
g1018
I1
ssS'guy'
p2775
(dp2776
S'..'
p2777
I1
ssg531
(dp2778
g407
I1
sS'hussein,'
p2779
I1
sg960
I1
sg1302
I1
sS'hussein'
p2780
I52
sg794
I8
ssS'prevent'
p2781
(dp2782
S'further'
p2783
I1
sg45
I2
sS'7'
p2784
I1
sg26
I1
ssS'talked'
p2785
(dp2786
g31
I1
ssg2167
(dp2787
g702
I3
ssS'dealing'
p2788
(dp2789
g19
I1
ssg1896
(dp2790
g45
I1
sg26
I1
ssS'invaded'
p2791
(dp2792
g60
I1
sg910
I1
ssg1898
(dp2793
g60
I1
sg89
I1
ssg2031
(dp2794
NI2
sg31
I4
ssg232
(dp2795
g89
I1
ssg2463
(dp2796
g60
I4
sg243
I1
sg861
I1
ssg159
(dp2797
g322
I1
sNI1
ssS'stands'
p2798
(dp2799
S'alone'
p2800
I1
sg31
I1
sS'committed'
p2801
I1
ssS'nationalized'
p2802
(dp2803
g2289
I1
ssS'imagined'
p2804
(dp2805
NI1
ssg1139
(dp2806
g23
I1
sNI1
sg89
I1
ssg587
(dp2807
g45
I1
ssS'convoy,'
p2808
(dp2809
g55
I1
ssS'havoc'
p2810
(dp2811
g42
I1
ssg1904
(dp2812
g389
I1
sg2469
I1
ssg2515
(dp2813
S'friendly'
p2814
I1
ssg2404
(dp2815
g24
I1
ssg2408
(dp2816
S'ignored'
p2817
I1
sS'on,'
p2818
I1
ssg389
(dp2819
g1014
I1
sg244
I1
sS'atomic'
p2820
I3
sg1893
I1
sg1999
I1
sg2353
I2
sg584
I1
sg1229
I1
sg1123
I1
sg2290
I1
ssS'unrestricted'
p2821
(dp2822
S'access'
p2823
I1
ssS'appeal'
p2824
(dp2825
g89
I1
ssS'boost'
p2826
(dp2827
S'investor'
p2828
I1
ssS'safety,'
p2829
(dp2830
g322
I1
ssg2291
(dp2831
g134
I1
sg45
I1
ssS'dictates'
p2832
(dp2833
g2579
I1
ssg1907
(dp2834
g200
I1
ssg2517
(dp2835
g45
I1
ssg1872
(dp2836
S'button'
p2837
I1
ssS'providence,'
p2838
(dp2839
g990
I1
ssg2466
(dp2840
g292
I1
ssS"hadn't"
p2841
(dp2842
g1236
I1
ssS'along'
p2843
(dp2844
g19
I1
sg372
I1
sg525
I1
sNI1
ssS'say,'
p2845
(dp2846
g683
I1
sg2638
I4
ssg2570
(dp2847
g60
I1
sg89
I1
sg45
I1
sg243
I1
sg42
I1
ssS'wait'
p2848
(dp2849
g60
I2
sg23
I1
sg31
I1
ssS'box'
p2850
(dp2851
g89
I1
ssS'assyrians,'
p2852
(dp2853
S'turkomans,'
p2854
I1
ssS'hormuz'
p2855
(dp2856
g60
I1
ssS'healthy'
p2857
(dp2858
S'forests'
p2859
I1
ssS'shift'
p2860
(dp2861
g372
I1
ssS'guilty'
p2862
(dp2863
g187
I1
ssS'intelligence,'
p2864
(dp2865
g60
I1
ssS'forbids,'
p2866
(dp2867
g37
I1
ssS'trial'
p2868
(dp2869
S'lawyers'
p2870
I1
ssS'accomplished'
p2871
(dp2872
g1072
I1
sg211
I1
ssS'here,'
p2873
(dp2874
g42
I1
ssS'stand,'
p2875
(dp2876
g187
I1
ssg857
(dp2877
g151
I1
sg45
I1
ssS'extra'
p2878
(dp2879
g1978
I1
ssS'prefer'
p2880
(dp2881
g2040
I1
ssg1873
(dp2882
g89
I1
ssS'morale'
p2883
(dp2884
g19
I1
ssS'told,'
p2885
(dp2886
g219
I1
ssg1847
(dp2887
S'disclose,'
p2888
I1
ssg898
(dp2889
S'treat'
p2890
I1
ssg1922
(dp2891
g86
I1
ssg2525
(dp2892
g86
I3
ssS'crisis'
p2893
(dp2894
S'abroad,'
p2895
I1
ssS'market'
p2896
(dp2897
S'declines,'
p2898
I1
ssg1713
(dp2899
g322
I1
ssS'everybody'
p2900
(dp2901
g2368
I1
ssS'opposes'
p2902
(dp2903
g269
I1
ssg2702
(dp2904
g60
I3
sg246
I1
ssg1690
(dp2905
g132
I1
sg19
I2
sg1853
I1
sS'closely'
p2906
I2
ssS'prove'
p2907
(dp2908
g23
I1
sS'irrelevant'
p2909
I1
sg37
I1
ssg2044
(dp2910
g89
I1
ssS'tubes'
p2911
(dp2912
g60
I1
sg886
I1
sg363
I1
ssg245
(dp2913
g60
I1
sNI1
sg960
I1
sg340
I1
ssg2646
(dp2914
g60
I1
sg66
I1
sg24
I1
sg42
I4
ssg1693
(dp2915
g23
I11
sS'through'
p2916
I3
sg1926
I1
ssg2140
(dp2917
NI1
ssg2492
(dp2918
g60
I1
sg55
I1
sg1767
I2
ssg1568
(dp2919
g19
I1
ssS'enforced,'
p2920
(dp2921
g431
I1
ssg2270
(dp2922
g60
I1
sg23
I1
sg42
I1
sg738
I1
sNI1
sg752
I1
sg45
I1
ssg1931
(dp2923
g1773
I1
ssS'gentlemen,'
p2924
(dp2925
S'seldom'
p2926
I1
ssg2534
(dp2927
g434
I1
ssS'three,'
p2928
(dp2929
g431
I1
ssg2264
(dp2930
g2880
I1
ssS'1962,'
p2931
(dp2932
g2510
I1
ssg109
(dp2933
g23
I3
ssS'hmos,'
p2934
(dp2935
g85
I1
ssg2536
(dp2936
g89
I1
sg2516
I1
ssg1756
(dp2937
g60
I1
ssg536
(dp2938
S'lebanese,'
p2939
I1
ssS'car'
p2940
(dp2941
S'driven'
p2942
I1
sS'producing'
p2943
I1
ssS'delegates,'
p2944
(dp2945
g60
I1
ssS'abortion'
p2946
(dp2947
NI1
sg96
I1
ssS'soul'
p2948
(dp2949
g24
I1
ssS'believes'
p2950
(dp2951
g42
I1
sg26
I1
ssg2744
(dp2952
S'dating'
p2953
I1
ssg1760
(dp2954
g45
I1
ssS'values'
p2955
(dp2956
g90
I1
ssg620
(dp2957
g331
I8
sg85
I1
sg1016
I1
sg296
I1
sg1466
I1
sS'show'
p2958
I1
sS'read'
p2959
I1
sg485
I1
sg108
I1
sg2217
I1
sg2427
I1
sg891
I2
sS'inflict'
p2960
I1
sS'shake'
p2961
I1
sS'hold'
p2962
I1
sg361
I1
sg2570
I1
sS'appear'
p2963
I1
sS'come,'
p2964
I1
sg1548
I1
sS'proceed'
p2965
I1
sg2168
I2
sS'coexist'
p2966
I4
sg415
I1
sS'tolerate'
p2967
I1
sg2387
I1
sg1453
I1
sS'attack'
p2968
I1
sg422
I1
sS'harbor'
p2969
I1
sS'arrive'
p2970
I1
sS'alter'
p2971
I1
sg172
I1
sg1458
I4
ssS'growing'
p2972
(dp2973
S'fleet'
p2974
I1
sg1807
I1
sg1960
I1
ssg1729
(dp2975
g243
I1
sg1712
I1
sg804
I1
ssg2970
(dp2976
g24
I1
ssS'hours,'
p2977
(dp2978
g45
I1
ssg771
(dp2979
g23
I1
sg45
I3
sg26
I1
ssg1424
(dp2980
g434
I1
sS'ourselves'
p2981
I1
ssg640
(dp2982
S'wonder,'
p2983
I1
sg60
I2
sS'improved'
p2984
I1
sg171
I1
sg621
I1
sg89
I1
sS'risking'
p2985
I1
sg23
I2
sg90
I1
sg296
I1
sS'dead,'
p2986
I1
sNI3
sS'boys'
p2987
I1
ssS'predict'
p2988
(dp2989
NI1
ssg1694
(dp2990
g60
I1
sg21
I1
ssg2542
(dp2991
g291
I1
ssg2361
(dp2992
NI1
ssS'death'
p2993
(dp2994
g60
I1
sS'sentence,'
p2995
I1
sg187
I1
sg129
I1
sg752
I1
ssS'posing'
p2996
(dp2997
g187
I1
ssS'dropped'
p2998
(dp2999
g960
I1
ssg1951
(dp3000
g204
I1
sg1338
I1
sg31
I1
sg1336
I1
sg622
I1
sS'said,'
p3001
I1
sNI1
sg1956
I1
sg23
I4
sS'seriously'
p3002
I1
sg1241
I1
sg296
I1
sg71
I7
sg348
I1
sg263
I2
sg2198
I1
ssg2403
(dp3003
g23
I2
ssS'hydrogen,'
p3004
(dp3005
g60
I1
ssS'1993,'
p3006
(dp3007
g15
I1
ssS'hydrogen'
p3008
(dp3009
g60
I1
ssS'listens'
p3010
(dp3011
g23
I1
ssS'conquest,'
p3012
(dp3013
g60
I2
ssS'requirements'
p3014
(dp3015
g45
I1
sNI1
ssg2139
(dp3016
S'sparing,'
p3017
I1
sg89
I1
sg1159
I5
ssg119
(dp3018
g257
I3
sg60
I6
sg1412
I2
sS'reaction'
p3019
I1
sg2039
I1
sS'weapon'
p3020
I1
sg2562
I3
sg431
I2
ssg1844
(dp3021
g60
I1
sg23
I1
sg1913
I1
ssS'africa,'
p3022
(dp3023
g1882
I1
ssS'fourth'
p3024
(dp3025
g201
I1
ssg2552
(dp3026
g1073
I1
ssS'genocide'
p3027
(dp3028
g60
I1
ssS'speaks'
p3029
(dp3030
g19
I1
ssg1960
(dp3031
g60
I1
sg26
I1
sS'immediately'
p3032
I1
sg86
I1
sg1551
I1
sNI1
sg752
I1
sS'expand'
p3033
I1
sg1805
I2
ssS'armies'
p3034
(dp3035
g60
I1
sg89
I1
sNI1
ssg1384
(dp3036
g60
I1
sg605
I1
sg960
I1
sS'possible,'
p3037
I1
sg42
I1
ssg1444
(dp3038
g1182
I3
sg331
I4
sg689
I1
sg648
I1
sg1773
I4
sNI1
sg37
I1
ssg1445
(dp3039
NI1
sg31
I2
ssg411
(dp3040
g581
I1
sg1961
I1
sg178
I2
sg134
I1
sg89
I4
sg55
I1
sS'billions'
p3041
I1
sg257
I1
sg1603
I1
sg1534
I1
sS'such'
p3042
I1
sg2290
I1
sS'them,'
p3043
I1
sg19
I1
sg37
I1
ssS'islamic'
p3044
(dp3045
S'tradition'
p3046
I1
ssS'produce'
p3047
(dp3048
g119
I1
sg187
I1
sg1534
I1
sg722
I1
sg219
I2
sS'germ'
p3049
I1
ssS'mankind'
p3050
(dp3051
NI2
ssg1730
(dp3052
g21
I1
sg45
I1
sg599
I1
ssg3042
(dp3053
g257
I1
sS'weapons,'
p3054
I1
sg187
I1
sS'measures,'
p3055
I1
sg2305
I1
sg2019
I1
ssS'heroes'
p3056
(dp3057
g182
I1
ssg1967
(dp3058
g2229
I1
sS'intentions'
p3059
I1
ssS'data'
p3060
(dp3061
S'centers'
p3062
I1
ssg110
(dp3063
g778
I1
ssg111
(dp3064
g60
I1
sg182
I1
sNI1
sg42
I1
ssS'missiles,'
p3065
(dp3066
g60
I2
ssS'remember'
p3067
(dp3068
g372
I1
sNI2
sg1194
I1
sS'debates'
p3069
I1
ssg1827
(dp3070
g342
I1
ssg2557
(dp3071
g85
I1
ssS'logs,'
p3072
(dp3073
S'experiment'
p3074
I1
ssS'keep,'
p3075
(dp3076
g434
I1
ssg1447
(dp3077
g331
I1
sg2646
I1
sg1443
I1
sg495
I1
sg2848
I1
ssg778
(dp3078
S'that,'
p3079
I1
sg407
I1
sg85
I1
sg1724
I1
sg26
I5
sg434
I1
sS'far,'
p3080
I1
sg1073
I1
sg295
I1
sg1072
I1
sg2159
I1
sg162
I4
sg533
I2
sNI2
sg752
I1
ssg2287
(dp3081
g60
I1
ssS'hostilities,'
p3082
(dp3083
g23
I1
ssS'embassies'
p3084
(dp3085
g42
I1
ssS'policy?'
p3086
(dp3087
NI1
ssS'breaking'
p3088
(dp3089
g90
I1
ssS'isolation,'
p3090
(dp3091
g924
I1
ssg2283
(dp3092
g45
I1
ssS'unacceptable'
p3093
(dp3094
NI1
ssg18
(dp3095
S'ago,'
p3096
I3
sS'deceiving,'
p3097
I1
sg960
I1
sg31
I2
sg89
I5
sg1392
I1
sg1299
I1
sNI4
sg605
I1
sg23
I1
sg2497
I1
sg19
I1
ssS'stability'
p3098
(dp3099
g89
I1
ssS'ended'
p3100
(dp3101
g45
I1
sg187
I1
ssg2779
(dp3102
g85
I1
ssS'early,'
p3103
(dp3104
g290
I1
ssg2961
(dp3105
g45
I1
sS'off'
p3106
I1
ssS'argued'
p3107
(dp3108
g85
I1
sg26
I1
ssS'cold'
p3109
(dp3110
S'war,'
p3111
I1
ssS'cole'
p3112
(dp3113
g571
I1
ssS'texan'
p3114
(dp3115
g23
I3
ssS'group'
p3116
(dp3117
g431
I1
sg37
I1
ssg2489
(dp3118
g583
I2
sg45
I1
ssS'internationally'
p3119
(dp3120
g2315
I1
ssg2593
(dp3121
g359
I1
sg360
I3
sS'given'
p3122
I4
sg1693
I3
sS'fired'
p3123
I1
ssg1433
(dp3124
g1753
I1
ssg354
(dp3125
g60
I1
sg769
I4
sS"theni'm"
p3126
I1
ssS'months,'
p3127
(dp3128
g45
I1
ssg1301
(dp3129
g492
I1
sS'overheads'
p3130
I1
ssg1989
(dp3131
g89
I1
ssg2986
(dp3132
S'blind,'
p3133
I1
ssS'policy'
p3134
(dp3135
g89
I1
ssS'ours'
p3136
(dp3137
NI1
ssS'dividends'
p3138
(dp3139
NI1
ssS'factual'
p3140
(dp3141
g340
I3
ssg1993
(dp3142
g89
I1
ssS'conquest'
p3143
(dp3144
g42
I1
ssS'texas'
p3145
(dp3146
NI3
ssS'happened'
p3147
(dp3148
NI1
ssS'lonely'
p3149
(dp3150
g2502
I1
ssS'finance'
p3151
(dp3152
g48
I1
ssg388
(dp3153
g1184
I4
ssS'civilian'
p3154
(dp3155
g395
I1
sg2255
I1
sS'areas,'
p3156
I1
sg467
I1
ssS'experiment,'
p3157
(dp3158
g683
I1
ssg103
(dp3159
g60
I2
sg1953
I1
sS'made'
p3160
I1
sg26
I4
sg86
I6
sS'fights'
p3161
I1
sg41
I1
sg407
I2
sg2177
I1
sg187
I1
sg1302
I1
sg620
I2
sg42
I1
sS'moves'
p3162
I1
sNI3
sS'finds'
p3163
I5
ssS'year,'
p3164
(dp3165
g60
I1
sg1384
I1
sg85
I1
sg683
I1
sg31
I1
sg531
I1
sg45
I1
sg431
I1
sg752
I1
sg571
I1
ssg1942
(dp3166
g23
I1
sNI3
sS'ceasefire,'
p3167
I1
ssS'conquer'
p3168
(dp3169
g599
I1
ssS'half'
p3170
(dp3171
S'measures,'
p3172
I1
ssg359
(dp3173
g771
I1
sg2646
I1
sg2053
I1
sg1358
I1
sg569
I1
sg2788
I1
sg42
I1
sg500
I1
sg1427
I1
sg571
I1
sg196
I1
sg924
I1
sg2916
I1
sg296
I2
sS'pass'
p3174
I1
sg372
I1
sS'deny,'
p3175
I1
sS'credibly'
p3176
I1
sg207
I1
sS"doesn't"
p3177
I4
sS"america's"
p3178
I1
sg2692
I1
sg2965
I1
sg31
I1
sNI1
sS'overlook'
p3179
I1
sg631
I2
sg276
I1
sg1435
I1
sg23
I5
sg1532
I8
sS'willing'
p3180
I1
sg1068
I1
sS'evil,'
p3181
I1
sS'threaten'
p3182
I1
sg3140
I3
sg74
I1
sS'sent'
p3183
I1
sg422
I1
sS'exhaust'
p3184
I1
sS'lived'
p3185
I1
sS'obey'
p3186
I1
sg488
I1
sS'ignore,'
p3187
I1
sS'rise'
p3188
I1
sS'disclosed'
p3189
I1
sS'selfdefense,'
p3190
I1
sg1703
I1
sg2427
I1
sg891
I1
sS'destroy'
p3191
I1
sS'ask'
p3192
I1
sS'refuse,'
p3193
I1
sS'inevitable'
p3194
I2
sS'reaganesque'
p3195
I3
sg243
I3
sS'easily'
p3196
I1
sg1274
I2
sg331
I8
sS'isolation'
p3197
I1
sg1165
I1
sg332
I1
sg41
I1
sg497
I1
sS'ignore'
p3198
I1
sg434
I3
sg1236
I2
sg778
I1
sS'intimidate'
p3199
I1
sg496
I1
sg490
I1
sg2972
I1
sg45
I3
sg1353
I1
sg867
I1
ssg487
(dp3200
g331
I1
sg605
I1
sg2692
I1
sg26
I1
sg1509
I1
sS'gathering'
p3201
I1
sS'acting'
p3202
I1
sS'expect'
p3203
I1
sg42
I2
sS'reached'
p3204
I2
sNI4
sg676
I1
sg891
I1
ssS'discuss'
p3205
(dp3206
g243
I1
ssS'nor'
p3207
(dp3208
g45
I1
ssg1535
(dp3209
S'coordinator'
p3210
I1
sS'contacts'
p3211
I1
ssS'term'
p3212
(dp3213
NI1
ssS'decade,'
p3214
(dp3215
g45
I1
ssS'mandates'
p3216
(dp3217
g243
I1
ssS'canister,'
p3218
(dp3219
g108
I1
ssg1269
(dp3220
g60
I1
ssg2657
(dp3221
g55
I1
ssg2009
(dp3222
g89
I1
ssg1708
(dp3223
g188
I1
ssg2487
(dp3224
g24
I1
ssS'instability'
p3225
(dp3226
g60
I1
ssg1409
(dp3227
NI1
ssg2010
(dp3228
S'aljazeera.net'
p3229
I1
sg187
I1
sS'names'
p3230
I1
sS'name'
p3231
I1
sg477
I1
ssS'square'
p3232
(dp3233
S'miles,'
p3234
I1
ssS'individuals'
p3235
(dp3236
g19
I1
ssg1714
(dp3237
NI1
sg752
I2
sg2270
I1
ssS'peacekeepers'
p3238
(dp3239
g86
I1
ssS'pennsylvania,'
p3240
(dp3241
g434
I1
ssg2285
(dp3242
g89
I1
ssS'challenges'
p3243
(dp3244
NI1
ssS'or,'
p3245
(dp3246
g31
I1
sg108
I1
ssg2016
(dp3247
g1871
I3
sg1488
I1
ssS'begun'
p3248
(dp3249
S'inoculating'
p3250
I1
sS'striking'
p3251
I1
ssg2505
(dp3252
g60
I1
sg2200
I2
sg605
I1
sg23
I2
sS'which'
p3253
I1
sg42
I1
sg45
I1
sg657
I1
sNI5
sS'alone,'
p3254
I1
ssS'morning'
p3255
(dp3256
g45
I1
sNI1
ssS'plans'
p3257
(dp3258
g60
I1
sg434
I1
ssg1985
(dp3259
g23
I3
sNI3
ssg2263
(dp3260
S'in,'
p3261
I4
sg19
I1
sg865
I1
sg42
I1
ssS'shown'
p3262
(dp3263
g2472
I1
ssS"america's"
p3264
(dp3265
g1919
I1
sg2233
I1
sS'determination'
p3266
I1
sg1964
I1
sg438
I1
ssS'container'
p3267
(dp3268
g60
I1
ssS'arabia,'
p3269
(dp3270
S'bahrain,'
p3271
I1
sS'israel,'
p3272
I1
ssg3176
(dp3273
g377
I1
ssS'increase'
p3274
(dp3275
g2656
I1
ssg1725
(dp3276
g2573
I1
sg2289
I1
ssg3002
(dp3277
NI1
ssS'washington,'
p3278
(dp3279
S'd'
p3280
I5
ssg2027
(dp3281
S'become'
p3282
I4
sNI4
ssS'dominate'
p3283
(dp3284
g60
I1
sg243
I1
sg45
I3
ssg28
(dp3285
g26
I1
ssg1723
(dp3286
g60
I1
sg21
I2
ssS'cars'
p3287
(dp3288
g960
I1
ssg474
(dp3289
S'disadvantaged'
p3290
I1
sg582
I1
sg962
I3
sg222
I1
sg247
I1
sS'senior'
p3291
I1
sg1353
I1
sg2286
I1
ssS'mechanisms'
p3292
(dp3293
g407
I1
ssS'possibility'
p3294
(dp3295
g212
I1
ssS'challenge,'
p3296
(dp3297
g1753
I1
ssg2450
(dp3298
g60
I1
ssg2096
(dp3299
S'assembly,'
p3300
I1
sS'assembly'
p3301
I1
ssg3194
(dp3302
NI2
ssg1228
(dp3303
g1971
I1
sg2206
I1
sg31
I2
sg2732
I1
sg1194
I1
sS'system,'
p3304
I1
sg42
I1
sNI1
sS'system'
p3305
I1
ssS'longrange'
p3306
(dp3307
g1067
I2
sg3065
I2
ssS'advance'
p3308
(dp3309
g233
I1
sg1893
I1
ssg2037
(dp3310
g60
I1
sg348
I1
sg2123
I1
ssg1669
(dp3311
g1153
I1
ssg2042
(dp3312
S'pow'
p3313
I2
sS'pilots'
p3314
I1
sg2494
I1
ssS'honest'
p3315
(dp3316
S'government,'
p3317
I1
ssg1453
(dp3318
g23
I1
sg45
I2
sg42
I1
ssS'place'
p3319
(dp3320
g23
I2
sS'church'
p3321
I1
sNI2
sg42
I1
ssS'massive'
p3322
(dp3323
S'scale'
p3324
I1
sS'stockpile'
p3325
I1
ssg291
(dp3326
g45
I1
sg85
I15
sg26
I1
sS"i'm"
p3327
I3
sg55
I1
sS'anybody'
p3328
I3
ssS'emerge,'
p3329
(dp3330
g322
I1
ssS'1000'
p3331
(dp3332
S'vehicle'
p3333
I1
ssS'suspend'
p3334
(dp3335
g3082
I1
ssg3251
(dp3336
g209
I1
ssg2061
(dp3337
g928
I4
sg89
I2
sg583
I4
sNI1
sg1512
I3
sg86
I1
ssg2498
(dp3338
g683
I1
ssS'reliable,'
p3339
(dp3340
g85
I1
ssg582
(dp3341
g60
I1
sg296
I5
sS'receive'
p3342
I2
sS'into'
p3343
I1
sg182
I2
sg407
I1
sg2928
I1
sg499
I1
sg340
I4
sg1294
I1
sg42
I1
sNI2
sg2270
I1
ssg1073
(dp3344
g187
I5
sg55
I1
sS'captivity'
p3345
I1
sg42
I1
ssS'directly'
p3346
(dp3347
g960
I1
ssS'vote'
p3348
(dp3349
g132
I1
sNI1
ssS'message'
p3350
(dp3351
g23
I1
sg31
I3
sg89
I1
ssS'raped'
p3352
(dp3353
g187
I1
ssS'open'
p3354
(dp3355
g45
I1
sg968
I1
ssg1387
(dp3356
g60
I1
sg89
I5
sNI1
ssS'received'
p3357
(dp3358
g1225
I1
ssg3122
(dp3359
g1841
I1
sg116
I1
sg133
I5
ssS'silent'
p3360
(dp3361
g3345
I1
ssg2329
(dp3362
g182
I1
ssS'indicate'
p3363
(dp3364
g26
I1
ssg2529
(dp3365
g2641
I1
sg474
I1
ssS'tragic'
p3366
(dp3367
S'date,'
p3368
I1
ssS'convene'
p3369
(dp3370
g132
I1
ssS'white'
p3371
(dp3372
NI1
ssS'riskfree'
p3373
(dp3374
g1980
I1
ssS'friend'
p3375
(dp3376
g23
I1
ssS'bloodshed'
p3377
(dp3378
g60
I1
ssS'towers,'
p3379
(dp3380
g24
I1
ssg2818
(dp3381
g60
I1
ssg26
(dp3382
g1919
I1
sg322
I4
sS'survived'
p3383
I1
sg1523
I1
sg1263
I1
sg1978
I2
sS'compels'
p3384
I1
sg1866
I1
sg2000
I1
sg2431
I1
sg108
I1
sg3100
I1
sS'war,'
p3385
I1
sg1685
I3
sg1438
I1
sS'continent,'
p3386
I1
sg1548
I1
sg411
I1
sg15
I19
sg171
I1
sg116
I2
sg23
I1
sg2184
I1
sg3366
I1
sS'helps'
p3387
I1
sg348
I2
sg718
I1
sS'enslaves'
p3388
I1
sg98
I4
sg269
I1
sS'devastate'
p3389
I1
sg26
I2
sg1958
I1
sS'material'
p3390
I2
sg189
I1
sS'increases'
p3391
I1
sg90
I2
sg162
I1
sg779
I1
sS'killed'
p3392
I1
sg139
I1
sg37
I11
sg833
I1
sg1944
I1
sS'represses'
p3393
I1
sS'serves'
p3394
I1
sS'hosts'
p3395
I1
sg620
I1
sS'physicians'
p3396
I1
sg246
I1
sg676
I2
sS'dumb'
p3397
I1
sg964
I1
sg1913
I2
sg666
I1
sg594
I1
sg99
I1
sg621
I1
sg86
I16
sg3216
I1
sg2091
I1
sg1427
I1
sS'coalition'
p3398
I1
sS'protects'
p3399
I1
sg340
I4
sg296
I1
sg372
I2
sS"iraq's"
p3400
I1
sg1165
I1
sg800
I4
sS'lie'
p3401
I1
sg374
I1
sNI2
sg1957
I1
sg418
I1
sS'provides'
p3402
I1
sg1975
I1
sS'program,'
p3403
I1
sg2955
I1
sg1803
I1
sg1805
I1
sg349
I1
sg85
I4
sg657
I1
sg531
I15
sg55
I3
sg2832
I1
sS'agreement'
p3404
I1
sg2108
I4
sg34
I2
sS'says,'
p3405
I1
sg2875
I1
sg243
I1
sS'iraq,'
p3406
I1
sS'kuwait,'
p3407
I1
sS'always'
p3408
I1
sg2040
I1
sg738
I4
sg1451
I1
sS'terrible'
p3409
I1
sg3315
I1
sg1915
I1
sg1972
I1
sg495
I2
sg1040
I3
sS'threatens'
p3410
I2
sg9
I1
sg45
I15
sg1880
I2
ssS'season'
p3411
(dp3412
NI1
ssS'taxation'
p3413
(dp3414
g89
I1
ssS'violence,'
p3415
(dp3416
g60
I1
ssS'punished'
p3417
(dp3418
NI2
ssS'actually,'
p3419
(dp3420
g683
I3
ssS'than'
p3421
(dp3422
S'3,000'
p3423
I1
sg470
I1
sS'patient'
p3424
I1
sS'600'
p3425
I1
sS'talk,'
p3426
I1
sg223
I1
sg1563
I1
sS'60'
p3427
I1
sg2569
I1
sg372
I1
sg468
I1
sS'50,000'
p3428
I1
sg828
I1
sg243
I6
sg507
I2
sS'30,000'
p3429
I1
sS'23'
p3430
I1
sg683
I1
sS'six'
p3431
I1
sS'38,000'
p3432
I1
sg915
I1
sS'35'
p3433
I1
sg23
I1
sS'3'
p3434
I1
sS'4'
p3435
I1
sS'135,000'
p3436
I1
sg45
I1
sg2483
I1
sg270
I1
sS'600,000'
p3437
I1
sg3278
I3
ssg467
(dp3438
S'carries'
p3439
I1
sNI1
ssg659
(dp3440
g18
I1
ssS'10'
p3441
(dp3442
g2641
I1
sg474
I1
ssS'12'
p3443
(dp3444
S'years,'
p3445
I1
sg582
I1
sg18
I2
ssg2351
(dp3446
g60
I1
sg2641
I1
sNI1
sg18
I1
ssS'third'
p3447
(dp3448
g201
I1
ssS'16'
p3449
(dp3450
g89
I1
ssS'19'
p3451
(dp3452
S'hijackers'
p3453
I1
ssS'gotta'
p3454
(dp3455
g1419
I3
ssS'summary'
p3456
(dp3457
g1094
I1
ssS'diplomatic'
p3458
(dp3459
g60
I1
ssg973
(dp3460
g19
I1
ssg2078
(dp3461
g85
I1
sg3185
I1
sg89
I4
sg1123
I1
sNI1
sg18
I1
ssg246
(dp3462
g243
I4
sg1288
I1
sg886
I1
sg2403
I1
sg26
I1
sg133
I1
sS'clear,'
p3463
I1
sg55
I1
sg1761
I1
sg23
I1
sS'maintained'
p3464
I1
sg1693
I1
sg42
I2
sg359
I1
sg780
I1
sNI1
sg3183
I1
ssS'softball,'
p3465
(dp3466
g55
I1
ssg2589
(dp3467
g1753
I1
ssg2116
(dp3468
g683
I2
ssS'russia'
p3469
(dp3470
g23
I1
ssg2085
(dp3471
g34
I1
ssS'drills,'
p3472
(dp3473
S'cutting'
p3474
I1
ssg60
(dp3475
S'stock'
p3476
I1
sg322
I10
sg2672
I1
sg2750
I1
sg1122
I1
sg1860
I2
sg1903
I1
sg2286
I4
sg38
I1
sg2685
I1
sg46
I1
sS'killers'
p3477
I1
sS'communism'
p3478
I1
sS'offensive'
p3479
I1
sg23
I17
sg495
I1
sg66
I1
sg48
I1
sg477
I1
sg265
I2
sg621
I1
sg269
I4
sg1879
I2
sg87
I1
sg2567
I1
sg482
I1
sS'courage'
p3480
I1
sg90
I3
sg1320
I1
sS'continued'
p3481
I1
sg2748
I1
sS'mothers'
p3482
I1
sS'die'
p3483
I1
sg2587
I1
sS'omani'
p3484
I1
sS'remove'
p3485
I1
sg1336
I1
sg1339
I1
sg443
I1
sg1534
I7
sg3103
I1
sg3339
I1
sg183
I3
sg1894
I1
sS"iraq's"
p3486
I1
sg340
I2
sS'desperate'
p3487
I1
sg3174
I1
sg202
I1
sS'aggressive'
p3488
I2
sS'deploying'
p3489
I1
sg207
I1
sg1159
I4
sg374
I2
sS'below'
p3490
I1
sS'practices'
p3491
I1
sg257
I1
sS"there's"
p3492
I1
sg247
I2
sg2821
I1
sg2824
I1
sS'tolerance'
p3493
I1
sS'harassing'
p3494
I1
sg277
I1
sg85
I24
sg490
I1
sg1911
I1
sS'aircraft'
p3495
I1
sS'succeed'
p3496
I1
sS'others'
p3497
I1
sS'cities'
p3498
I1
sg1062
I2
sS'talent'
p3499
I1
sg533
I3
sg1502
I3
sg41
I1
sS'patients'
p3500
I1
sg2868
I1
sg3010
I1
sg1830
I1
sg210
I1
sg9
I2
sS"i'm"
p3501
I4
sS'suddenly'
p3502
I1
sg2524
I1
sg382
I1
sS'learning'
p3503
I1
sS'respect'
p3504
I2
sg1554
I1
sg2845
I4
sg25
I2
sS'decent'
p3505
I1
sg2381
I1
sg152
I1
sg1563
I1
sS'raging'
p3506
I1
sg3417
I1
sg2113
I1
sg3182
I1
sg2920
I1
sg2270
I1
sg219
I5
sS'attention,'
p3507
I1
sg373
I1
sg132
I1
sg454
I1
sS"what's"
p3508
I1
sg2924
I1
sS'camps,'
p3509
I1
sS'domination'
p3510
I1
sg462
I1
sg571
I1
sS'2006'
p3511
I1
sS'present'
p3512
I1
sg1335
I5
sg2934
I1
sg509
I3
sg1310
I1
sg434
I6
sS'defining'
p3513
I1
sS'polls'
p3514
I3
sg3398
I2
sg1647
I1
sg407
I1
sg620
I1
sg2040
I1
sS'engineers'
p3515
I1
sS'control'
p3516
I1
sS'concerted'
p3517
I1
sg1694
I1
sg86
I3
sS'delaying'
p3518
I1
sg908
I1
sg55
I9
sS'confound'
p3519
I1
sS'strengthen'
p3520
I1
sS'woman'
p3521
I1
sg3399
I1
sS'urged'
p3522
I1
sg42
I6
sS'vx'
p3523
I1
sS'create'
p3524
I2
sS'lifts'
p3525
I1
sS'rape'
p3526
I3
sg96
I3
sg3012
I1
sg188
I1
sg2724
I1
sS'democracy'
p3527
I1
sg606
I1
sg3410
I1
sg415
I2
sS'holds'
p3528
I1
sS'mounting'
p3529
I1
sg82
I1
sS'gentlemen'
p3530
I1
sg638
I1
sS'weaken'
p3531
I1
sS'higher'
p3532
I1
sg849
I1
sg531
I1
sS'restraint'
p3533
I1
sg1445
I1
sg332
I1
sS'treatments'
p3534
I1
sS'kill'
p3535
I1
sS'rations'
p3536
I1
sg1730
I1
sS'monitoring'
p3537
I1
sg684
I1
sg2754
I1
sg243
I10
sg692
I1
sg683
I8
sg1845
I1
sS'documentation'
p3538
I1
sg776
I2
sS'destroying'
p3539
I1
sg346
I1
sg1857
I1
sg45
I40
sg2460
I1
sS'logistics,'
p3540
I1
sS"that's"
p3541
I5
sS'restore'
p3542
I1
sS'687,'
p3543
I1
sg1977
I1
sg1047
I1
sS'produces'
p3544
I1
sS'developed'
p3545
I1
sg479
I1
sS'soon'
p3546
I1
sS'technicians'
p3547
I1
sg3098
I1
sg2916
I1
sg2820
I1
sg1893
I2
sg599
I2
sg728
I1
sg2993
I1
sS'police'
p3548
I1
sg3119
I1
sS'equipment'
p3549
I1
sg749
I1
sg753
I2
sg348
I1
sg1944
I2
sg769
I4
sg1996
I1
sS'tyrants'
p3550
I1
sS'increased'
p3551
I1
sS'bolder'
p3552
I1
sg3154
I1
sg2003
I2
sg3168
I1
sS'private'
p3553
I1
sg162
I1
sg359
I2
sg3032
I1
sS'bravery'
p3554
I1
sg1662
I1
sS'lost'
p3555
I1
sg837
I1
sg1577
I1
sg1274
I2
sS'reduces'
p3556
I1
sg2242
I1
sg2245
I1
sg3199
I1
sg1123
I4
sg2256
I1
sS'ports'
p3557
I1
sS'disrupt'
p3558
I1
sg2502
I1
sg2053
I1
sS'exposed'
p3559
I1
sS'senate'
p3560
I1
sS'fish'
p3561
I4
sS'oppressed'
p3562
I1
sg618
I1
sg924
I2
sS'done,'
p3563
I1
sg2018
I1
sg372
I18
sg1107
I3
sS'destroy,'
p3564
I1
sg2275
I2
sg3264
I1
sS'funding'
p3565
I1
sg31
I9
sS'control,'
p3566
I1
sg910
I1
sS'defend'
p3567
I2
sS'e-mail'
p3568
I1
sg785
I1
sS'shipment'
p3569
I1
sS'innovation'
p3570
I1
sg709
I1
sS'fortitude'
p3571
I1
sg3283
I1
sg149
I1
sS'deceptions'
p3572
I1
sg2326
I1
sg951
I1
sg958
I2
sS'promptly'
p3573
I1
sS'broken'
p3574
I1
sg1051
I1
sg752
I7
sg3306
I2
sg1341
I1
sS'allies'
p3575
I2
sg1048
I1
sg991
I1
sS'conceal'
p3576
I1
sg2339
I1
sg2907
I1
sg998
I1
sg2042
I3
sg590
I2
sg1453
I1
sg2347
I1
sg497
I1
sS'unmanned'
p3577
I1
sg1055
I1
sg2047
I1
sg1014
I2
sg2522
I1
sg2365
I1
sg1263
I1
sg1057
I1
sS'brutally'
p3578
I1
sg108
I3
sg1016
I1
sS'determine'
p3579
I1
sg456
I1
sg884
I1
sg1041
I1
sg3354
I1
sg76
I1
sS'whims'
p3580
I1
sS'revival'
p3581
I1
sg151
I2
sg745
I2
sg706
I1
sS'girls'
p3582
I2
sS'gases'
p3583
I1
sS'accountability'
p3584
I1
sg1455
I1
sS"we're"
p3585
I1
sg1382
I2
sg3371
I1
sS'analyze'
p3586
I1
sg40
I2
sS'fairest'
p3587
I1
sS'hospitals'
p3588
I1
sg1137
I1
sg1082
I2
sg26
I5
sg223
I1
sg3415
I1
sS'vowing'
p3589
I1
sS'plague'
p3590
I1
sg784
I1
sS'doctors'
p3591
I1
sg1103
I1
sg37
I7
sg204
I1
sg2436
I1
sS'applying'
p3592
I1
sg2438
I1
sS'burning,'
p3593
I1
sg3197
I1
sg1112
I1
sS'principles,'
p3594
I3
sg1709
I1
sS'imprisonment,'
p3595
I1
sS'undeniable'
p3596
I1
sg3469
I1
sg1114
I1
sg3201
I1
sg2088
I1
sg843
I1
sS'nurses'
p3597
I1
sS'lowincome'
p3598
I1
sS'poisons'
p3599
I1
sg2091
I2
sg560
I1
sg295
I1
sg187
I1
sS'marines,'
p3600
I1
sg2476
I1
sg296
I1
sS'peril,'
p3601
I1
sS'watched'
p3602
I1
sg492
I1
sg1165
I1
sS'harbored'
p3603
I1
sS'expand,'
p3604
I1
sg133
I1
sS'deadly'
p3605
I1
sg584
I1
sg211
I5
sg1180
I1
sS'40'
p3606
I1
sg489
I1
sg2097
I12
sS'potential'
p3607
I3
sg3191
I3
sg583
I4
sg2202
I1
sg1444
I2
sg182
I1
sg2028
I2
sS'educate'
p3608
I1
sS'cruelty'
p3609
I1
sS'selfgoverning'
p3610
I1
sS'develops'
p3611
I1
sg134
I2
sS'70'
p3612
I1
sg34
I2
sS'687'
p3613
I1
sg1696
I1
sS'innovation,'
p3614
I1
sg2168
I1
sS'invest'
p3615
I1
sg1737
I1
sS'defeating'
p3616
I1
sg1234
I1
sS'mass'
p3617
I1
sg24
I1
ssg3201
(dp3618
g23
I1
sg41
I1
sg100
I1
ssg3487
(dp3619
S'measures'
p3620
I1
ssS'investors'
p3621
(dp3622
S'equally'
p3623
I1
ssS'turned'
p3624
(dp3625
g1392
I1
sg1707
I1
ssS'taxpayers,'
p3626
(dp3627
g60
I1
ssg1940
(dp3628
g89
I4
sNI1
ssS'say'
p3629
(dp3630
NI1
sg55
I1
ssS"iraq's"
p3631
(dp3632
g2664
I1
sS'ongoing'
p3633
I1
sS'recent'
p3634
I1
sg2494
I1
sS'illegal'
p3635
I1
sg1712
I1
sg962
I3
sg2431
I1
sg1765
I1
sg257
I2
sS'statecontrolled'
p3636
I1
sg1928
I1
sS'behavior'
p3637
I1
sg2056
I1
sg2658
I1
sg9
I1
sg800
I4
ssS'occupied'
p3638
(dp3639
g243
I1
ssg950
(dp3640
S'time,'
p3641
I1
sg3122
I1
sS'fingerprints'
p3642
I1
sg412
I1
sS'faster'
p3643
I1
sS'conflict,'
p3644
I1
sg182
I1
sS'source,'
p3645
I1
sg1059
I1
sS'site,'
p3646
I1
sg2097
I1
sS'command'
p3647
I1
sS'sense'
p3648
I1
sg247
I1
sg263
I1
sg111
I1
ssg3603
(dp3649
S'terrorists,'
p3650
I1
ssg2070
(dp3651
g89
I1
ssS'programs,'
p3652
(dp3653
g599
I1
ssg450
(dp3654
NI1
ssS'employers'
p3655
(dp3656
g23
I1
ssS'aside'
p3657
(dp3658
g776
I1
ssS'678'
p3659
(dp3660
g60
I1
ssg3549
(dp3661
g1063
I1
sg42
I1
ssg3607
(dp3662
S'wealth,'
p3663
I1
sS'mental'
p3664
I3
ssg422
(dp3665
g243
I3
sg23
I1
sg90
I1
sS'dream'
p3666
I5
sg45
I4
sNI1
sg502
I1
sg108
I1
ssS'objective'
p3667
(dp3668
S'analysis'
p3669
I4
ssg3191
(dp3670
g60
I1
sg322
I2
sg1961
I1
sg45
I1
sS"iraq's"
p3671
I1
sg581
I1
sg599
I1
ssg3437
(dp3672
g2010
I1
ssg1973
(dp3673
g257
I1
ssS'urge'
p3674
(dp3675
g45
I2
sg90
I1
sg583
I3
ssg483
(dp3676
g243
I1
sg19
I1
sNI1
ssg1724
(dp3677
S"there's"
p3678
I3
sg582
I1
sg26
I1
sg45
I1
sg182
I1
sNI1
ssS'botulinum'
p3679
(dp3680
S'toxin,'
p3681
I1
sg629
I1
ssS'track'
p3682
(dp3683
g60
I2
ssS'squalor'
p3684
(dp3685
g2711
I1
ssS'knew'
p3686
(dp3687
g1192
I1
ssS'paid'
p3688
(dp3689
g581
I1
sg31
I4
ssS'falls'
p3690
(dp3691
g23
I1
ssS'hamburg,'
p3692
(dp3693
S'milan,'
p3694
I1
ssg34
(dp3695
g60
I8
sS'wants'
p3696
I1
sg1726
I1
sS'tried'
p3697
I1
sg962
I1
sg86
I6
sg182
I1
sg340
I2
sg2074
I1
sNI12
sg477
I1
sg243
I1
sg3029
I1
sg2798
I1
sg418
I1
sg683
I2
sg2950
I2
sg407
I3
sg23
I1
sg776
I1
sg620
I2
sg1509
I1
sg348
I2
ssg3613
(dp3698
g1755
I1
ssS'interacting'
p3699
(dp3700
g19
I3
ssg1600
(dp3701
NI1
ssS'operate'
p3702
(dp3703
g42
I1
ssg2114
(dp3704
g60
I1
ssS'sources,'
p3705
(dp3706
S'secret'
p3707
I1
ssg1735
(dp3708
g243
I1
ssg2117
(dp3709
g89
I1
sS"family's"
p3710
I1
ssS'adopt'
p3711
(dp3712
g243
I1
ssg2118
(dp3713
g219
I1
ssg3616
(dp3714
g45
I1
ssg1902
(dp3715
g2637
I1
sg1948
I1
sg2494
I1
sS'cufflink'
p3716
I3
sS'screeners'
p3717
I1
sg320
I1
sg2098
I1
ssg3291
(dp3718
S'official'
p3719
I1
sg2091
I1
sg182
I1
ssg3429
(dp3720
S'munitions'
p3721
I1
sg1317
I1
ssg540
(dp3722
S'vice'
p3723
I1
ssS'terrorism,'
p3724
(dp3725
g60
I2
sg19
I1
ssg2958
(dp3726
g26
I1
sNI3
sg45
I1
sg1192
I1
sg223
I1
sg752
I1
ssg3716
(dp3727
NI3
ssS'sites'
p3728
(dp3729
g60
I1
sS'actually'
p3730
I1
sNI1
sg26
I1
ssg1020
(dp3731
g434
I1
sg2916
I1
sg26
I1
ssg619
(dp3732
g372
I4
ssg3488
(dp3733
S'dictators,'
p3734
I1
sg1928
I1
sS'forms,'
p3735
I1
sg1040
I1
ssS'2000the'
p3736
(dp3737
g1739
I1
ssg2488
(dp3738
g60
I1
ssS'waited'
p3739
(dp3740
g3443
I1
ssS'indestructible?'
p3741
(dp3742
NI1
ssg1871
(dp3743
S'war,'
p3744
I2
sg1545
I5
ssg2608
(dp3745
g45
I1
sg322
I1
ssS'liberation'
p3746
(dp3747
g86
I1
sNI1
ssg1532
(dp3748
g98
I4
sg269
I1
sg3090
I1
sg1501
I1
sg1736
I1
sg657
I1
sg211
I1
sg746
I2
sg1880
I1
sg23
I4
sS'chance'
p3749
I1
sS'water,'
p3750
I1
sg120
I2
sg89
I1
sg55
I1
sg372
I1
sg45
I1
sg24
I1
sg1805
I1
sg1702
I2
sS'hints'
p3751
I1
ssg3734
(dp3752
g46
I1
sS'actively'
p3753
I1
ssg381
(dp3754
g793
I1
ssS'raising'
p3755
(dp3756
g45
I1
ssS'awareness'
p3757
(dp3758
g89
I1
ssg2047
(dp3759
g2336
I4
sg60
I1
sg201
I1
sg2940
I1
sg86
I1
sg1968
I1
sg3319
I1
sg725
I1
sS'time,'
p3760
I1
sS'lady'
p3761
I4
sg153
I1
ssg3229
(dp3762
S'web'
p3763
I1
sg1084
I1
ssg1443
(dp3764
S'elected'
p3765
I1
sg2250
I1
sg55
I1
sg571
I4
ssS'condemning'
p3766
(dp3767
g45
I1
sS"iraq's"
p3768
I1
ssg1979
(dp3769
g23
I2
sg89
I1
ssS'factories,'
p3770
(dp3771
g133
I1
ssS'baghdad'
p3772
(dp3773
g434
I1
ssg3477
(dp3774
NI2
ssg1882
(dp3775
g3441
I2
sS'900'
p3776
I1
sS'30'
p3777
I1
ssS'sanitizing'
p3778
(dp3779
S'inspection'
p3780
I1
ssg1468
(dp3781
g60
I1
sg2434
I2
ssg1884
(dp3782
S'causes'
p3783
I1
ssg488
(dp3784
g60
I2
sg134
I1
sg26
I3
ssg3133
(dp3785
g431
I1
ssg656
(dp3786
g2911
I3
ssS'smallpox,'
p3787
(dp3788
g60
I1
ssg2926
(dp3789
g348
I1
ssg1452
(dp3790
g372
I1
ssS'experience'
p3791
(dp3792
g42
I1
ssS'miles'
p3793
(dp3794
S'far'
p3795
I1
ssg1194
(dp3796
S'sensitive'
p3797
I1
sg1532
I1
sg162
I1
sg372
I5
sNI1
sg55
I5
sS'wings'
p3798
I5
sg219
I2
ssS'neighbors,'
p3799
(dp3800
g3766
I1
sg133
I1
ssg2817
(dp3801
NI1
ssg1288
(dp3802
NI1
sS'offlimits'
p3803
I1
ssS'fourandahalf'
p3804
(dp3805
g3127
I1
ssS'violated'
p3806
(dp3807
g322
I1
sg26
I1
ssS'devoiced..?'
p3808
(dp3809
S'none'
p3810
I1
ssg1707
(dp3811
g23
I7
sg776
I1
sg31
I1
sg42
I2
sS'lives,'
p3812
I1
sg45
I1
sg3449
I1
ssg3765
(dp3813
g23
I1
ssg3753
(dp3814
g60
I1
ssS'existence'
p3815
(dp3816
NI1
ssS'compliance,'
p3817
(dp3818
g60
I1
ssS'concern'
p3819
(dp3820
g605
I1
ssg2964
(dp3821
g45
I1
sg290
I1
ssg2512
(dp3822
g134
I1
sg45
I1
ssS'detect'
p3823
(dp3824
g1534
I1
ssg1148
(dp3825
g89
I2
sg26
I1
sNI3
sg3421
I3
sg96
I1
ssS'incite'
p3826
(dp3827
g1860
I1
ssg1293
(dp3828
g89
I1
sNI1
ssg257
(dp3829
S'development'
p3830
I2
sg60
I3
sg322
I1
sg26
I1
sg1854
I1
sS'labs'
p3831
I1
sg21
I1
sg779
I1
sg359
I1
sS'inspector'
p3832
I1
sNI14
sS'design,'
p3833
I1
sg1014
I1
sg1551
I1
sg833
I1
sg960
I1
sg31
I1
sg3652
I1
sg89
I24
sg753
I1
sg27
I1
sg407
I1
sg23
I5
sg1948
I3
sg2270
I1
sg348
I1
sg270
I1
sg86
I1
sg2322
I1
ssg3271
(dp3834
g60
I1
ssg3434
(dp3835
g474
I1
sS'words'
p3836
I1
sg18
I1
ssg1920
(dp3837
NI2
ssg1251
(dp3838
g243
I3
sg531
I1
sg372
I4
sg45
I1
sg15
I1
sg3008
I1
ssS'cuba...'
p3839
(dp3840
NI1
ssg3250
(dp3841
g2702
I1
ssg930
(dp3842
g86
I1
sNI4
sS'is,'
p3843
I1
ssg27
(dp3844
g243
I1
sS'broad'
p3845
I1
sg45
I1
sg34
I2
sg26
I1
ssS'therapies'
p3846
(dp3847
g340
I1
ssS'affordable'
p3848
(dp3849
g2289
I1
ssS'multiplied'
p3850
(dp3851
g533
I1
ssS'notice'
p3852
(dp3853
g290
I1
ssS'infrastructure'
p3854
(dp3855
g1063
I1
ssg2513
(dp3856
g340
I1
sg867
I1
ssS'legitimacy'
p3857
(dp3858
g407
I1
ssg3187
(dp3859
g85
I1
ssS'shaked?'
p3860
(dp3861
NI4
ssg1911
(dp3862
g89
I1
sg571
I1
sg1387
I1
ssS'spare'
p3863
(dp3864
S'himself,'
p3865
I2
sg1603
I1
ssg3498
(dp3866
NI2
ssg361
(dp3867
g60
I3
sg605
I1
sg960
I4
sg722
I1
sg1707
I4
sg23
I5
sg1068
I1
sg42
I1
sNI1
sg752
I1
sg1551
I1
ssS'undermine'
p3868
(dp3869
g531
I1
sg1950
I1
sg269
I3
ssg3019
(dp3870
g1251
I1
ssS'stages'
p3871
(dp3872
g89
I2
ssg2295
(dp3873
g1559
I1
ssg842
(dp3874
g60
I1
sS'turkey,'
p3875
I1
ssg533
(dp3876
g621
I1
sg296
I1
sg962
I1
sNI1
sS'hands'
p3877
I4
sg18
I1
sg3243
I1
sg582
I2
sg340
I1
sS'key'
p3878
I1
sg42
I2
sS'iranians,'
p3879
I1
sg20
I1
sg3588
I1
sg1929
I1
sg1327
I1
sS'people,'
p3880
I1
sg1969
I1
sg640
I1
sS'nations,'
p3881
I2
sg965
I2
sS'parts'
p3882
I1
sg89
I1
sS'challenges,'
p3883
I1
sg3497
I1
ssg1913
(dp3884
g407
I1
sg60
I1
sNI4
sg1194
I1
sS'south'
p3885
I1
ssg914
(dp3886
g1444
I1
sNI1
ssg3882
(dp3887
g89
I1
sNI1
ssS'weapon,'
p3888
(dp3889
g60
I1
ssg987
(dp3890
g1580
I1
ssS'commitment,'
p3891
(dp3892
g372
I1
ssg1028
(dp3893
g60
I1
ssS'reluctantly'
p3894
(dp3895
S'yet,'
p3896
I1
ssg1916
(dp3897
g348
I3
ssS"can't"
p3898
(dp3899
g634
I4
sg422
I3
sg296
I3
sg1977
I1
ssg1919
(dp3900
g60
I1
sg89
I1
sg86
I1
sg3690
I1
sg23
I3
ssg1679
(dp3901
g581
I1
sg2097
I1
sg735
I1
sg676
I1
ssS'provocation'
p3902
(dp3903
NI1
ssS'passenger'
p3904
(dp3905
NI1
ssg3313
(dp3906
g187
I1
sg340
I1
ssg3384
(dp3907
g45
I1
ssS'allies,'
p3908
(dp3909
g769
I1
sg182
I1
ssS'insist'
p3910
(dp3911
g132
I1
ssg3427
(dp3912
S'percent'
p3913
I1
ssg3464
(dp3914
g657
I1
ssg3503
(dp3915
g3419
I3
sg45
I1
sNI1
sg620
I1
ssg2088
(dp3916
S'alarm'
p3917
I1
sg1040
I1
ssS'aggression,'
p3918
(dp3919
g60
I1
sg19
I1
ssS'custody'
p3920
(dp3921
g488
I1
ssS'caring'
p3922
(dp3923
S'society'
p3924
I1
sg31
I1
ssg215
(dp3925
NI1
sg116
I1
sg31
I1
ssg138
(dp3926
g23
I1
ssg25
(dp3927
g89
I5
sg374
I1
ssg955
(dp3928
g89
I3
sg3114
I3
sNI3
ssg2240
(dp3929
g151
I2
ssS'15year'
p3930
(dp3931
g1369
I1
ssg966
(dp3932
g752
I1
ssg1929
(dp3933
g23
I1
sg340
I1
sg42
I1
sg89
I1
sg1451
I1
sNI2
ssg1930
(dp3934
g60
I1
ssg1172
(dp3935
g340
I1
ssS'hardly'
p3936
(dp3937
g1443
I1
ssS'500'
p3938
(dp3939
g1537
I1
ssg3189
(dp3940
g134
I1
ssg3696
(dp3941
g45
I1
ssS'madrid,'
p3942
(dp3943
S'london,'
p3944
I1
ssS'offered'
p3945
(dp3946
g243
I1
ssS'400'
p3947
(dp3948
g2641
I1
ssS'mydomain.com,'
p3949
(dp3950
S'host'
p3951
I1
ssg3509
(dp3952
g1263
I1
ssS'photos'
p3953
(dp3954
g488
I1
ssS'declaration'
p3955
(dp3956
S'denying'
p3957
I1
ssS'suspected'
p3958
(dp3959
g1263
I1
ssg2909
(dp3960
g23
I1
ssS'realities'
p3961
(dp3962
NI1
ssg676
(dp3963
S'weapons,'
p3964
I1
sg1024
I1
sg3014
I1
sg1888
I1
sg1865
I2
sNI1
sg2370
I1
sg182
I3
sg257
I4
sg252
I1
sg2977
I1
sg3836
I1
sS'discussions'
p3965
I1
sg3453
I1
sg71
I1
sg3451
I1
sS'guys'
p3966
I1
sS'orders'
p3967
I1
ssS'pilot'
p3968
(dp3969
g86
I1
ssg548
(dp3970
g89
I1
sNI4
sg41
I1
ssS'juveniles'
p3971
(dp3972
g620
I1
ssg3388
(dp3973
g581
I1
ssg1310
(dp3974
g257
I1
sg243
I3
sg322
I1
sS'clean,'
p3975
I1
sg676
I1
ssS'danger,'
p3976
(dp3977
g45
I1
sg85
I1
sg1753
I1
ssg2299
(dp3978
S'terror,'
p3979
I1
ssg3514
(dp3980
g60
I3
ssg1835
(dp3981
g89
I4
ssS'vial,'
p3982
(dp3983
g108
I1
ssS'cast'
p3984
(dp3985
g3657
I1
ssg1746
(dp3986
S'necessary,'
p3987
I1
ssg3633
(dp3988
g1482
I1
ssg2223
(dp3989
g2396
I1
ssS'care,'
p3990
(dp3991
g60
I1
ssg1946
(dp3992
g738
I1
sg595
I1
ssS'saudi,'
p3993
(dp3994
g534
I1
ssS'life,'
p3995
(dp3996
g60
I1
ssS'686'
p3997
(dp3998
g60
I1
ssg2209
(dp3999
S'kurds,'
p4000
I1
ssS"iraqi's"
p4001
(dp4002
S'legal'
p4003
I1
ssg1565
(dp4004
g1537
I1
ssS'engaged'
p4005
(dp4006
g42
I1
ssg102
(dp4007
g60
I1
ssg1950
(dp4008
S'class,'
p4009
I3
sg2193
I8
sg704
I5
ssg2753
(dp4010
g48
I1
sg60
I1
ssS'accounting'
p4011
(dp4012
g89
I1
ssS'scavenger'
p4013
(dp4014
g2237
I1
ssS'technology'
p4015
(dp4016
g60
I2
sg23
I1
ssg1076
(dp4017
g23
I1
ssS'worry'
p4018
(dp4019
g26
I1
ssg1355
(dp4020
g2078
I1
sg960
I1
sS'methods'
p4021
I2
sg52
I1
sg1509
I1
sg50
I1
sg3056
I1
sNI1
sS'strategies'
p4022
I1
ssg1067
(dp4023
NI2
sg19
I2
sg24
I1
sg26
I1
ssg775
(dp4024
g257
I1
sg243
I2
sg151
I1
sS'cleaner'
p4025
I1
ssS'vivid'
p4026
(dp4027
g2553
I1
ssS'doctor'
p4028
(dp4029
g42
I1
ssg3717
(dp4030
g42
I1
ssS'cost,'
p4031
(dp4032
g45
I1
ssS'tyrants,'
p4033
(dp4034
g496
I1
ssg1957
(dp4035
S'year,'
p4036
I1
sg118
I1
sg2010
I1
sg773
I1
sg1982
I1
sg187
I1
sg1136
I1
sg1011
I1
ssg82
(dp4037
g3953
I1
sS'flights'
p4038
I1
ssg3530
(dp4039
g85
I1
ssg1698
(dp4040
g1753
I1
ssS'physical'
p4041
(dp4042
g3854
I1
ssg2553
(dp4043
g89
I1
sNI1
sg620
I1
sg42
I1
ssg3184
(dp4044
g2376
I1
ssg1961
(dp4045
g545
I2
sS'wealth'
p4046
I1
sg552
I1
sS'wells,'
p4047
I1
sNI4
sg31
I2
ssS'refusal'
p4048
(dp4049
g23
I1
ssS'intimidation'
p4050
(dp4051
g60
I1
ssS'director'
p4052
(dp4053
g89
I1
ssg2942
(dp4054
g752
I1
ssg2620
(dp4055
g1148
I1
sg23
I2
sg1546
I1
sS'years,'
p4056
I2
sg3379
I1
ssS'changing'
p4057
(dp4058
g269
I1
ssg141
(dp4059
g133
I1
ssS'totally'
p4060
(dp4061
g3093
I1
ssg3046
(dp4062
g89
I1
ssS'relies'
p4063
(dp4064
g132
I3
ssg42
(dp4065
S'seeing'
p4066
I1
sg322
I2
sS'ridding'
p4067
I1
sg1521
I5
sg1589
I1
sg191
I1
sS'1995,'
p4068
I2
sg2372
I1
sg2195
I1
sg34
I3
sg108
I5
sg1254
I1
sg3109
I1
sg599
I3
sg3920
I1
sS'time,'
p4069
I1
sg1044
I1
sS'20'
p4070
I1
sg3360
I1
sS'northern'
p4071
I1
sS'addition'
p4072
I1
sg3635
I1
sg2620
I1
sg151
I1
sS'charge'
p4073
I1
sS'afghanistan,'
p4074
I2
sg15
I11
sS'cuba'
p4075
I2
sS'america,'
p4076
I1
sg219
I3
sg98
I1
sg269
I3
sg2413
I1
sg3154
I1
sS'washington'
p4077
I4
sS'1994,'
p4078
I1
sg3390
I1
sg1071
I1
sg55
I4
sg3772
I1
sS'october'
p4079
I1
sg90
I4
sg247
I1
sS'front'
p4080
I1
sS'insisting'
p4081
I1
sg193
I1
sS'assuring'
p4082
I1
sS'formal'
p4083
I1
sg1942
I2
sg505
I1
sg2193
I1
sS'culture,'
p4084
I1
sg1310
I1
sg434
I9
sS'iran,'
p4085
I1
sg1264
I1
sS'this,'
p4086
I1
sg1647
I1
sg518
I1
sg676
I1
sg1344
I1
sS'airports,'
p4087
I1
sg222
I1
sg1729
I1
sS'them,'
p4088
I1
sg70
I5
sg9
I1
sg943
I1
sS'1999,'
p4089
I1
sg1501
I1
sg2212
I1
sg3240
I1
sg571
I1
sS'france,'
p4090
I1
sg372
I10
sS'ourselves,'
p4091
I1
sg3006
I1
sg2981
I1
sg2463
I3
sg2040
I1
sg1148
I1
sg584
I1
sg1102
I1
sS'1998,'
p4092
I2
sS'research'
p4093
I1
sS'preventing'
p4094
I1
sg26
I2
sS'washington,'
p4095
I1
sg3253
I2
sg2770
I4
sg583
I1
sg1803
I2
sS'europe'
p4096
I1
sg251
I1
sg1469
I3
sg950
I2
sS'baton'
p4097
I1
sg855
I2
sS'singapore,'
p4098
I1
sS'effect'
p4099
I1
sg3434
I1
sS'yemen,'
p4100
I1
sg1475
I1
sg3692
I1
sg978
I1
sg3042
I1
sg1703
I1
sg1838
I1
sg3634
I2
sg243
I18
sg1622
I1
sS'yemen'
p4101
I1
sS'1980'
p4102
I1
sg200
I1
sS"workers'"
p4103
I1
sg533
I1
sg1914
I1
sg431
I1
sg1860
I2
sS'bombmaking'
p4104
I1
sS'rural'
p4105
I1
sg45
I52
sg3443
I1
sg712
I4
sS'desperation,'
p4106
I1
ssS'framework'
p4107
(dp4108
g23
I1
ssg1054
(dp4109
g431
I1
ssg1969
(dp4110
g243
I1
sg620
I1
sg1383
I1
sg246
I1
ssg891
(dp4111
S'now,'
p4112
I1
sS"they're"
p4113
I1
sg85
I1
sg531
I1
sg26
I13
sg683
I1
sg182
I1
sS'exactly,'
p4114
I1
sg322
I1
sg55
I1
sg616
I7
sg243
I1
sg45
I5
sNI4
sg76
I1
sg96
I3
ssS'accountable'
p4115
(dp4116
NI1
ssg776
(dp4117
g45
I1
sS'conquest,'
p4118
I1
sg3902
I1
sg2040
I1
sS'guidance'
p4119
I1
sS'consequence?'
p4120
I1
sS'illusion'
p4121
I1
sg918
I1
sS'warning,'
p4122
I1
sg974
I1
sg1342
I1
sg543
I1
sg1860
I1
sg1088
I1
sg1545
I1
ssg900
(dp4123
g243
I1
sg86
I2
sg42
I1
ssS'relied'
p4124
(dp4125
g132
I1
ssg1958
(dp4126
g1355
I2
sg1072
I1
sg2122
I1
sS'hour'
p4127
I1
sg3291
I1
sg1380
I1
sg72
I1
ssS'model'
p4128
(dp4129
g89
I1
ssg732
(dp4130
g60
I4
sS'barred'
p4131
I1
sS'unilaterally'
p4132
I1
sg1611
I1
sg45
I1
sS'deployed'
p4133
I1
sS'tortured'
p4134
I1
ssg1978
(dp4135
g407
I1
sg23
I1
sg86
I3
sNI5
sg3421
I1
ssg799
(dp4136
g23
I1
sg162
I1
sg599
I1
sg296
I1
sg3392
I1
ssg2985
(dp4137
g4050
I1
ssS'lavish'
p4138
(dp4139
S'palaces'
p4140
I1
ssg1981
(dp4141
g200
I3
sS'world,'
p4142
I1
ssS'efforts,'
p4143
(dp4144
S'however,'
p4145
I1
ssg3535
(dp4146
g132
I1
sS'wildlife,'
p4147
I1
sg718
I2
sg665
I1
sg716
I1
ssS'disperse'
p4148
(dp4149
g119
I1
ssg106
(dp4150
g89
I1
ssg2149
(dp4151
g683
I1
ssS'21,'
p4152
(dp4153
g1163
I1
ssg1338
(dp4154
g990
I1
sg599
I2
sg26
I1
ssg1689
(dp4155
g45
I1
sNI1
ssg1317
(dp4156
g89
I4
ssg2491
(dp4157
S'intensified'
p4158
I1
sg2871
I1
sS'experienced'
p4159
I1
sg3697
I2
sg3574
I1
sg845
I1
sg418
I1
sS'discussed'
p4160
I1
sg1021
I1
ssg1692
(dp4161
g60
I2
ssS'seems'
p4162
(dp4163
g23
I1
ssg2772
(dp4164
g23
I1
sg45
I1
ssS'interested'
p4165
(dp4166
g42
I1
ssg3435
(dp4167
g474
I1
sg3913
I1
ssS'aided,'
p4168
(dp4169
S'trained'
p4170
I1
ssS'struck'
p4171
(dp4172
g2097
I1
sg2047
I1
ssS'instructions'
p4173
(dp4174
g132
I1
ssg3558
(dp4175
g45
I1
ssS'skies'
p4176
(dp4177
g60
I1
sg2385
I1
ssg2493
(dp4178
g1975
I1
ssg1853
(dp4179
g45
I2
ssg3317
(dp4180
g60
I1
sg85
I1
ssg3196
(dp4181
g61
I1
ssg2959
(dp4182
g60
I5
sg605
I1
ssg2405
(dp4183
NI1
ssg1968
(dp4184
g2017
I1
sS'warning'
p4185
I1
sg3871
I1
ssg344
(dp4186
g45
I1
sg1753
I1
ssS'detract'
p4187
(dp4188
g960
I1
ssS'secrecy'
p4189
(dp4190
NI1
ssg200
(dp4191
g60
I3
sNI15
sg55
I1
sg1098
I1
sg1728
I1
sg24
I1
sg42
I5
sg960
I1
sg487
I1
sg19
I2
sg752
I1
sg477
I3
sg215
I1
sS'imposed'
p4192
I1
sg89
I6
sg2553
I1
sg407
I3
sg23
I7
sg167
I1
sS'believed'
p4193
I1
sg1123
I1
sg348
I7
sg1121
I1
sg1545
I3
sg867
I1
ssS'accepted'
p4194
(dp4195
g243
I1
ssg3761
(dp4196
g42
I4
ssg798
(dp4197
g3398
I1
sg400
I1
ssg2272
(dp4198
g23
I1
ssg2109
(dp4199
g89
I1
sNI1
ssS'heightened'
p4200
(dp4201
S'watch'
p4202
I1
ssg682
(dp4203
g1289
I1
ssg3556
(dp4204
g322
I1
ssg2008
(dp4205
g89
I1
ssg2500
(dp4206
g1712
I1
sg34
I1
ssS'chamber'
p4207
(dp4208
S'deeply'
p4209
I1
ssg1861
(dp4210
g407
I1
sg89
I1
ssS'miraculous'
p4211
(dp4212
S'medicines,'
p4213
I1
ssg2297
(dp4214
g865
I1
ssg3408
(dp4215
g361
I1
ssS'attempting'
p4216
(dp4217
g23
I2
ssg2503
(dp4218
g3232
I1
sg18
I2
ssg1046
(dp4219
S'power,'
p4220
I1
ssg3559
(dp4221
g434
I1
ssS'knock'
p4222
(dp4223
g504
I3
ssS'dictator,'
p4224
(dp4225
g19
I1
ssg3563
(dp4226
g683
I1
ssg2018
(dp4227
g89
I2
sg86
I1
ssg3534
(dp4228
g41
I1
ssg3944
(dp4229
g1850
I1
ssg3564
(dp4230
g66
I1
ssg839
(dp4231
S'energy,'
p4232
I1
ssS'peace,'
p4233
(dp4234
g60
I5
sg85
I1
sg55
I5
sg1051
I1
ssS'provided'
p4235
(dp4236
g801
I2
ssg2021
(dp4237
NI1
ssS'renounce'
p4238
(dp4239
g322
I1
ssS'attacks,'
p4240
(dp4241
g2125
I1
ssg2058
(dp4242
g89
I1
ssg4003
(dp4243
S"iraq's"
p4244
I1
ssS'critical'
p4245
(dp4246
g21
I1
ssg2026
(dp4247
g60
I1
ssg3402
(dp4248
S'prescription'
p4249
I1
ssg3505
(dp4250
g1318
I1
ssg2030
(dp4251
g3741
I1
ssg1726
(dp4252
g599
I1
sg42
I1
ssg3301
(dp4253
g60
I1
ssg251
(dp4254
g1035
I1
sg23
I5
sg60
I3
sg776
I1
sg243
I1
sg89
I4
sg45
I1
sNI4
sg407
I1
ssg3234
(dp4255
g19
I1
ssg1751
(dp4256
g4041
I1
ssS'intimidation,'
p4257
(dp4258
g60
I1
ssg2696
(dp4259
g60
I1
ssg3574
(dp4260
g2674
I1
sg90
I1
sg2091
I1
ssS'leadership'
p4261
(dp4262
g42
I1
ssg681
(dp4263
g1051
I1
ssS'five,'
p4264
(dp4265
g431
I1
ssS'partialbirth'
p4266
(dp4267
g2946
I1
ssg132
(dp4268
g3852
I1
sg269
I1
sg661
I1
sg2541
I1
sg322
I1
sg799
I1
sg583
I2
sS'terror,'
p4269
I1
sS'five'
p4270
I1
sS'february'
p4271
I1
sg1893
I1
sg1983
I3
sg3504
I1
sS'november'
p4272
I1
sg34
I2
sg229
I1
sg950
I1
sg243
I4
sg1159
I1
sg15
I1
sg4249
I4
sg4200
I1
sS'notice,'
p4273
I1
sg434
I3
sNI2
sg76
I5
sS'foreign'
p4274
I1
sg531
I1
sS'whole'
p4275
I1
sS'iran,'
p4276
I1
sg48
I3
sg45
I20
sg70
I2
sS'essential'
p4277
I1
sg219
I1
ssg89
(dp4278
g335
I1
sg322
I4
sS'serving'
p4279
I1
sS'excessive'
p4280
I1
sg888
I1
sg661
I5
sg3170
I1
sg1252
I1
sS'chaos'
p4281
I1
sg16
I1
sS'terror,'
p4282
I2
sg1893
I6
sg200
I1
sS'protecting'
p4283
I1
sg3488
I1
sS'nations,'
p4284
I1
sg2286
I4
sg38
I1
sg736
I1
sg257
I4
sg2694
I1
sg1317
I1
sg58
I1
sS'course,'
p4285
I1
sS'acres'
p4286
I1
sg79
I2
sg1167
I1
sg1603
I3
sg48
I5
sg718
I4
sS'stopped,'
p4287
I1
sg3145
I3
sg581
I2
sg269
I2
sg2494
I5
sg87
I2
sg641
I2
sg3390
I1
sS'history,'
p4288
I1
sg3480
I1
sg90
I5
sg4189
I1
sg359
I1
sg1254
I1
sg600
I1
sg2587
I1
sg1537
I1
sS'freedom,'
p4289
I1
sg3976
I1
sg3793
I1
sg4211
I1
sg1883
I1
sg1346
I1
sg1534
I3
sg1123
I2
sg169
I1
sg1105
I1
sg178
I1
sg1036
I1
sg962
I8
sg2204
I1
sg223
I1
sS'recession,'
p4290
I1
sS'40,000'
p4291
I1
sS'computer'
p4292
I1
sg372
I28
sS'skill'
p4293
I1
sS'peace,'
p4294
I1
sg2263
I1
sS'gradually'
p4295
I1
sS"america's"
p4296
I1
sg250
I1
sg1902
I3
sg910
I1
sS'decision'
p4297
I1
sS'drifting'
p4298
I1
sg1293
I1
sg233
I1
sg599
I11
sS'america,'
p4299
I1
sS'americans,'
p4300
I1
sg1905
I1
sg582
I1
sg709
I1
sS'iraq,'
p4301
I2
sg930
I3
sg1417
I1
sg1399
I1
sg251
I1
sg1469
I1
sS'dissidents,'
p4302
I1
sg3138
I1
sg860
I3
sg1788
I1
sg958
I1
sS'congress,'
p4303
I3
sg4261
I1
sS'california'
p4304
I1
sg2838
I1
sg1482
I1
sS'deceit'
p4305
I2
sg981
I1
sg15
I14
sg2570
I1
sg1755
I4
sg1071
I3
sg3995
I1
sg76
I3
sS'naval'
p4306
I1
sg2040
I1
sg2341
I1
sg192
I1
sg3409
I2
sg374
I1
sS'minorities'
p4307
I1
sg1860
I2
sg69
I1
sg594
I1
sg342
I2
sS'hopelessness'
p4308
I1
sS'sarin,'
p4309
I1
sS'defending'
p4310
I1
sg1014
I2
sS'major'
p4311
I1
sS'structures,'
p4312
I1
sg3143
I1
sg3497
I1
sg2195
I2
sS'delivering'
p4313
I1
sg379
I1
sS'war,'
p4314
I1
sg2054
I1
sg3503
I1
sS'cynicism'
p4315
I3
sS'combat'
p4316
I1
sg3918
I1
sg4266
I1
sg1387
I1
sg4257
I1
sg4046
I1
sg1048
I1
sS'removing'
p4317
I1
sg706
I1
sg152
I2
sg2620
I2
sg151
I6
sS'slowly'
p4318
I1
sS"afghanistan's"
p4319
I1
sS'decisive'
p4320
I1
sS'babies,'
p4321
I4
sg1545
I4
sg3377
I1
sS'generating'
p4322
I1
sS'treasured'
p4323
I1
sg1932
I2
sS'deception,'
p4324
I1
sS'fire'
p4325
I1
sS'funds'
p4326
I1
sg3609
I1
sg297
I1
sS'missile'
p4327
I1
sS'reckoning,'
p4328
I1
sg1605
I1
sg2931
I1
sg2943
I1
sg676
I4
sS'vx,'
p4329
I1
sg1108
I2
sg2351
I1
sg732
I1
sS'oppression,'
p4330
I1
sg434
I5
sg3398
I3
sg735
I7
sg965
I2
sg407
I2
sS'authority,'
p4331
I1
sg265
I1
sg2339
I1
sg2855
I1
sg70
I1
sg1767
I3
sS'reckless'
p4332
I2
sg1144
I1
sg1571
I1
sg572
I1
sg2091
I6
sg571
I3
sS'numbers'
p4333
I4
sS'peril,'
p4334
I1
sg2478
I3
sg1911
I1
sg4274
I1
sg950
I3
sg2582
I1
sg134
I4
sS'enriching'
p4335
I2
sS"iraq's"
p4336
I3
sg2574
I1
sg3605
I1
sS'invulnerability'
p4337
I1
sg584
I4
sg793
I1
sg1102
I3
sg119
I2
sg26
I1
sg3022
I1
sg247
I2
sg583
I1
sS'strangers'
p4338
I1
sg1803
I1
sg349
I2
sg3532
I1
sS'profile'
p4339
I1
sS'kurds,'
p4340
I1
sg1961
I1
sg3679
I1
sg531
I2
sg1445
I1
sg1159
I1
sg773
I1
sS'entry,'
p4341
I1
sg3634
I1
sg3050
I1
sg9
I2
sg3042
I1
sg34
I10
sg1220
I2
sg243
I16
sS'madmen'
p4342
I3
sS'kuwait,'
p4343
I2
sg98
I1
sg2752
I1
sS'mourning'
p4344
I1
sg3477
I1
sg3617
I23
sg725
I1
sg389
I2
sg45
I82
sS'30,000'
p4345
I1
sg2370
I1
ssg192
(dp4346
g60
I1
sg41
I1
sg42
I1
ssg4160
(dp4347
g1697
I1
ssg3611
(dp4348
g207
I1
ssg3557
(dp4349
g89
I1
ssg2043
(dp4350
g89
I1
ssS'tremendous'
p4351
(dp4352
g3294
I1
ssg2469
(dp4353
NI2
sg86
I1
sg2469
I1
sg3305
I1
ssg495
(dp4354
g752
I2
sg31
I4
sg1251
I1
sNI1
sg1707
I1
sg37
I1
ssS'neighbor'
p4355
(dp4356
g1047
I1
ssg3529
(dp4357
g1040
I1
ssS'problem,'
p4358
(dp4359
g1481
I1
ssg431
(dp4360
S'strongly'
p4361
I1
sg549
I1
sg1673
I1
sg1785
I1
sg1977
I1
sg569
I1
sg1029
I1
sS'chemical,'
p4362
I1
sg3100
I1
sS'individual'
p4363
I1
sg2961
I1
sg950
I1
sS'sell'
p4364
I1
sg775
I1
sS'her'
p4365
I4
sg606
I1
sg2303
I1
sg119
I1
sg79
I1
sg2968
I1
sg3191
I1
sg3373
I1
sS'injured'
p4366
I2
sg686
I1
sS'invite'
p4367
I1
sg2571
I1
sg297
I1
sg342
I1
sg4270
I1
sg359
I4
sg4264
I1
sS'steal'
p4368
I1
sg243
I2
sS'account'
p4369
I2
sg3342
I1
sS'makes'
p4370
I1
sg407
I1
sg3984
I1
sg1654
I1
sg222
I1
sg1534
I2
sg2047
I4
sS'commandandcontrol'
p4371
I1
sg1114
I1
ssS'road'
p4372
(dp4373
NI3
ssg2522
(dp4374
g60
I2
ssS'lands'
p4375
(dp4376
NI1
ssg316
(dp4377
g19
I1
ssg2049
(dp4378
g89
I2
ssg1683
(dp4379
g964
I1
sg19
I1
ssS'authorities'
p4380
(dp4381
g296
I1
ssg1477
(dp4382
g26
I1
ssg2055
(dp4383
g60
I1
ssS'parties'
p4384
(dp4385
g23
I1
sg296
I1
ssg3386
(dp4386
g1532
I1
ssg76
(dp4387
g112
I2
sg2037
I1
sg551
I1
sg52
I1
sS'family'
p4388
I4
sS'loved'
p4389
I1
sg1978
I4
sg2061
I4
sS'sacrifice,'
p4390
I1
sg3746
I2
sg1917
I1
sg4355
I1
sg964
I4
sg342
I1
sg4293
I1
sS'staffs,'
p4391
I1
sS'neighbors,'
p4392
I1
ssS'regime,'
p4393
(dp4394
g45
I1
sg15
I1
sg2573
I1
sg85
I1
ssg1807
(dp4395
g631
I1
sS'enough,'
p4396
I1
ssg4365
(dp4397
g407
I4
sNI1
ssg4317
(dp4398
g243
I1
ssg706
(dp4399
g407
I1
sg331
I1
sg1953
I9
sg340
I4
sg42
I1
sNI1
sg86
I2
sg40
I1
sg1446
I1
sg620
I2
ssS'totalitarian'
p4400
(dp4401
g1905
I1
ssS'sides'
p4402
(dp4403
NI1
ssg1439
(dp4404
g243
I4
sS'showing'
p4405
I1
sNI1
ssg2067
(dp4406
g4372
I3
ssS'lot'
p4407
(dp4408
g89
I6
sg759
I4
ssS'resolute'
p4409
(dp4410
g962
I1
ssg1928
(dp4411
g23
I1
sg348
I1
sg42
I1
sg89
I2
sg4194
I1
sNI5
sg182
I2
sg477
I1
ssg4320
(dp4412
g178
I1
sg998
I1
ssg2204
(dp4413
S'efficiency'
p4414
I1
sg2206
I1
sS'agency'
p4415
I3
sNI1
sg939
I1
sg24
I1
ssS'media'
p4416
(dp4417
g348
I1
sS'creation'
p4418
I1
ssS'departed,'
p4419
(dp4420
g162
I1
ssS'you,'
p4421
(dp4422
g434
I1
sg45
I1
sg1753
I3
ssg631
(dp4423
g23
I6
sNI1
sg1033
I1
sg251
I1
sS'doses'
p4424
I1
ssS'reduce'
p4425
(dp4426
g45
I1
ssg2113
(dp4427
g60
I1
sg962
I1
sg1207
I1
sS'solution,'
p4428
I1
sg860
I1
sg2353
I1
ssg338
(dp4429
g23
I1
sNI1
sg132
I1
ssS'sophisticated'
p4430
(dp4431
S'delivery'
p4432
I1
ssS'services,'
p4433
(dp4434
g1020
I1
sg96
I1
ssg3383
(dp4435
g243
I1
ssg2075
(dp4436
g60
I1
sg23
I1
sg89
I1
ssS'trying'
p4437
(dp4438
g23
I1
ssg19
(dp4439
g1358
I1
sg962
I3
sg2142
I1
sg1382
I1
sg2675
I1
sg571
I1
sg2768
I1
sg3504
I1
sg1155
I1
sg372
I1
sg1860
I1
sg599
I2
sg108
I1
sg134
I1
sg953
I1
sg2632
I1
sg600
I1
sg151
I1
sg374
I1
sg1263
I1
sg257
I1
sg79
I1
sg626
I1
sg2097
I4
sS'th'
p4440
I1
sg2113
I1
sS'inspectors,'
p4441
I1
sg583
I2
sS'panic'
p4442
I1
sg3034
I1
sg373
I1
sg269
I1
sS'electric'
p4443
I1
sS'horrible'
p4444
I1
sg297
I1
sS'ranges'
p4445
I1
sg581
I1
sg3617
I1
sg1938
I1
sg389
I1
sS'ties'
p4446
I2
sg15
I1
sg45
I20
sS'confidence,'
p4447
I1
sg243
I9
sg1071
I1
sg3575
I1
sg434
I1
sg533
I1
sg2544
I1
sg1396
I1
sg69
I1
sg2469
I1
sg725
I1
sg594
I4
sg90
I2
sg1123
I1
sg1917
I1
sg3724
I1
ssS'sarin'
p4448
(dp4449
g2358
I1
ssg3643
(dp4450
g3421
I1
ssS"they're"
p4451
(dp4452
g706
I1
sS'playing'
p4453
I4
ssg4079
(dp4454
g89
I1
ssg3592
(dp4455
g3458
I1
ssg2984
(dp4456
g657
I1
ssg4084
(dp4457
S'resources,'
p4458
I1
ssg4330
(dp4459
S"iraq's"
p4460
I1
ssg820
(dp4461
S'however,'
p4462
I1
sg1753
I1
ssS'poison'
p4463
(dp4464
g3770
I1
ssg4103
(dp4465
g1952
I1
ssS'home,'
p4466
(dp4467
g296
I1
ssS'grasp'
p4468
(dp4469
NI1
ssS'/prnewswire/'
p4470
(dp4471
S'--'
p4472
I1
ssg2083
(dp4473
g60
I1
ssg1460
(dp4474
g132
I1
sg26
I2
ssg1114
(dp4475
g1696
I1
sg738
I1
sg26
I3
ssg4361
(dp4476
g2291
I1
sg631
I1
ssS'gone'
p4477
(dp4478
g23
I1
sNI1
sg960
I1
ssS'vehicles'
p4479
(dp4480
g26
I1
ssg3425
(dp4481
g962
I1
ssg1277
(dp4482
g60
I1
ssg1357
(dp4483
g1535
I1
ssg1501
(dp4484
S'kurdish'
p4485
I1
sg2139
I1
sg3235
I1
sNI1
sg37
I1
ssS'am'
p4486
(dp4487
g358
I1
sS'mindful'
p4488
I1
sS'instructing'
p4489
I1
ssg2091
(dp4490
g1261
I14
sS"qaeda's"
p4491
I2
sS"jazeera's"
p4492
I1
ssS'deep'
p4493
(dp4494
g763
I1
ssg560
(dp4495
g640
I4
sS'citizens,'
p4496
I3
ssS'29,984'
p4497
(dp4498
g89
I1
ssg3917
(dp4499
NI1
ssg187
(dp4500
S'weapons,'
p4501
I1
sg85
I9
sg592
I1
sg531
I1
sg2862
I1
sg322
I1
sg2267
I1
sg3546
I2
sg4304
I1
sg162
I1
sg1541
I1
sg372
I2
sg456
I2
sg583
I3
sg676
I1
sg37
I2
sg243
I10
sg159
I1
sS'directed'
p4502
I1
sg920
I1
sg683
I1
sg312
I2
sg1738
I4
sg1073
I4
sg45
I6
sg1061
I1
sg151
I1
sg1072
I2
sS'abu'
p4503
I1
sS"i'm"
p4504
I4
sS'before,'
p4505
I1
sg1415
I1
sg3938
I1
sg1656
I3
ssS'words,'
p4506
(dp4507
g60
I1
ssg24
(dp4508
g243
I4
sS'peace,'
p4509
I1
sg322
I2
sg1361
I1
sg1613
I1
sg906
I1
sg434
I1
sg584
I1
sg3728
I1
sg2063
I3
sg4245
I1
sg676
I1
sg3253
I1
sS'home'
p4510
I1
sg372
I1
sg45
I7
sg492
I1
sg950
I1
sg4466
I1
sg2561
I1
ssS'laboratory'
p4511
(dp4512
g23
I1
ssg4334
(dp4513
g372
I1
sg85
I1
ssg3602
(dp4514
g15
I1
ssS'encompass'
p4515
(dp4516
g2503
I1
ssg3162
(dp4517
g2702
I1
ssg3588
(dp4518
g407
I1
sg2445
I1
ssS'casualty'
p4519
(dp4520
g42
I1
ssS'fill'
p4521
(dp4522
g45
I1
ssg204
(dp4523
g2273
I1
sg331
I1
sg187
I1
sg1338
I1
sg188
I1
sg60
I1
sg553
I1
sNI5
ssg819
(dp4524
g243
I1
sg372
I2
sg45
I1
sg55
I1
sg431
I1
ssS'compel'
p4525
(dp4526
g45
I1
ssS'field'
p4527
(dp4528
g243
I1
sg42
I1
ssg583
(dp4529
g60
I1
sg621
I3
sg322
I2
sg3686
I1
sg2031
I3
sS"don't"
p4530
I6
sg1958
I1
sg285
I1
sg3688
I4
sg295
I1
sg891
I7
sg296
I6
sg816
I1
sS'know,'
p4531
I4
sg1022
I1
sNI10
sS'teach'
p4532
I4
sg243
I3
sg643
I1
sg31
I2
sg1450
I1
sg3454
I3
sg1019
I1
sg407
I1
sg23
I16
sg620
I1
sg45
I1
sS'liberate'
p4533
I1
sg1712
I1
sg340
I1
ssS'as,'
p4534
(dp4535
S'buffalo,'
p4536
I1
ssS'gaining'
p4537
(dp4538
g60
I1
sg374
I1
ssS'requested'
p4539
(dp4540
g752
I1
ssS'conspiracies'
p4541
(dp4542
g1559
I1
ssg250
(dp4543
g407
I2
sg60
I2
sg340
I1
sg31
I1
sg23
I4
sg89
I1
sg63
I1
sg219
I1
ssS'students'
p4544
(dp4545
g60
I1
ssg65
(dp4546
g412
I1
ssS'symbol'
p4547
(dp4548
g89
I1
ssg3181
(dp4549
g769
I1
ssg3190
(dp4550
g55
I1
ssg4100
(dp4551
g45
I1
ssg1739
(dp4552
g1384
I1
sg1909
I4
sg1000
I1
sg31
I4
sg3570
I1
sS'multilateral'
p4553
I1
sNI4
sg2061
I4
sg605
I1
sg2270
I1
ssg2579
(dp4554
g60
I1
sg24
I1
sg1047
I1
ssg3565
(dp4555
g778
I1
sg31
I1
ssg1448
(dp4556
g45
I1
ssg3614
(dp4557
g19
I1
ssS'calls'
p4558
(dp4559
g269
I1
ssg3615
(dp4560
g60
I2
sg55
I1
sg42
I1
ssg3325
(dp4561
g89
I1
ssg3617
(dp4562
g1082
I4
sg2993
I2
sS'destruction,'
p4563
I4
sg2754
I16
ssS'doubted'
p4564
(dp4565
NI1
ssg1773
(dp4566
S'bless'
p4567
I2
sg2608
I1
sg1302
I1
sg1454
I2
sg2866
I1
ssg2133
(dp4568
g431
I1
ssS'overseas'
p4569
(dp4570
NI4
ssS'cabinet,'
p4571
(dp4572
g212
I1
ssg3017
(dp4573
g42
I1
ssg413
(dp4574
g243
I1
ssg322
(dp4575
g2502
I1
sg3830
I1
sg962
I1
sg2370
I1
sg2400
I1
sS'related'
p4576
I1
sg2092
I1
sg2716
I1
sg4506
I1
sg582
I4
sg1893
I1
sg4384
I1
sg372
I3
sg1107
I1
sNI6
sg599
I1
sg1869
I1
sg257
I3
sg1289
I1
sg1871
I2
sg79
I1
sS'nations,'
p4577
I1
sg745
I2
sg4274
I1
sg1904
I1
sg151
I1
sg2097
I1
sg1545
I1
sg1142
I1
sg269
I1
sg26
I2
sg1618
I1
sg182
I3
sg958
I3
sg2427
I1
sg3050
I1
sS'recriminations'
p4578
I1
sg2885
I1
sg2843
I1
sS'existing'
p4579
I1
sg676
I1
sS'people,'
p4580
I1
sg134
I6
sg89
I8
sg965
I2
sS'vulneratble'
p4581
I1
sS'illicit'
p4582
I2
sg1102
I1
sg1040
I1
sg1969
I1
sS'involvement'
p4583
I1
sg45
I13
sg1460
I1
sS'actions,'
p4584
I1
ssg289
(dp4585
g45
I1
sNI4
ssS'month'
p4586
(dp4587
g86
I1
sNI3
ssg2401
(dp4588
g657
I1
ssg823
(dp4589
g2678
I1
ssS'follow'
p4590
(dp4591
g243
I1
ssg2205
(dp4592
g23
I1
ssg1903
(dp4593
g1836
I1
sS'strife'
p4594
I1
ssg2286
(dp4595
g2263
I4
sg182
I2
sg732
I1
sg89
I1
sg86
I4
sg66
I1
sg187
I1
sg2987
I1
sg214
I1
sg3503
I3
sg42
I1
sNI1
sg1190
I1
ssg3783
(dp4596
g89
I1
sNI1
ssS'really,'
p4597
(dp4598
g1047
I1
ssg4338
(dp4599
NI1
ssg1578
(dp4600
g23
I1
ssS'day,'
p4601
(dp4602
g374
I1
ssg163
(dp4603
NI1
ssg1941
(dp4604
g4052
I1
sg1102
I1
sS'soviet'
p4605
I1
sg715
I1
ssg23
(dp4606
g322
I5
sS'45'
p4607
I1
sg2135
I1
sg43
I2
sg2958
I3
sS'1995,'
p4608
I1
sg500
I8
sg2675
I1
sg16
I2
sg2750
I5
sg3535
I3
sg4148
I1
sg1893
I2
sg1272
I1
sg1438
I1
sg4590
I1
sg1431
I3
sg1977
I6
sS'wage'
p4609
I1
sg3274
I1
sg2993
I1
sg4527
I1
sg1284
I4
sg1263
I2
sg3730
I1
sg79
I2
sS'add'
p4610
I1
sS'devoice...'
p4611
I1
sg501
I1
sg66
I1
sg3136
I1
sg553
I2
sg1638
I1
sg826
I1
sg265
I2
sS'build'
p4612
I7
sg767
I2
sg621
I7
sg3149
I1
sS'handle'
p4613
I3
sg3151
I1
sg1443
I1
sg2959
I5
sg791
I2
sg3188
I1
sg482
I1
sS'bear'
p4614
I1
sg2147
I1
sg90
I1
sg891
I7
sg389
I1
sg1052
I1
sS'unesco'
p4615
I1
sg1783
I1
sg3205
I1
sg1324
I1
sg1662
I1
sg488
I1
sg1886
I2
sg643
I1
sg1450
I7
sg847
I1
sg3485
I1
sg1890
I1
sg4567
I2
sS'merge'
p4616
I1
sg1454
I2
sS'arbitrary'
p4617
I1
sg484
I1
sS'unfettered'
p4618
I1
sg1437
I3
sg707
I1
sg2781
I3
sg2666
I1
sg1016
I2
sS'ten'
p4619
I1
sg185
I5
sg4425
I1
sS'him'
p4620
I1
sS'constitute'
p4621
I1
sS'date,'
p4622
I1
sg416
I2
sg3203
I1
sg2960
I1
sg3174
I8
sg372
I12
sg2981
I1
sg1385
I1
sS'peace,'
p4623
I2
sg493
I1
sg3823
I1
sg50
I1
sg251
I2
sg2168
I1
sg2732
I2
sS'avoid'
p4624
I3
sg599
I3
sg257
I1
sg1841
I1
sg922
I3
sS'showroom,'
p4625
I1
sS'eliminate'
p4626
I4
sg241
I3
sg3839
I1
sg247
I1
sg3283
I4
sg2826
I1
sS'public'
p4627
I1
sg941
I1
sg331
I40
sS'bully'
p4628
I1
sg1466
I1
sg3567
I3
sS'deliver'
p4629
I1
sg1788
I2
sg958
I1
sg115
I1
sg4304
I3
sg517
I1
sg485
I2
sg486
I5
sg4532
I3
sg15
I3
sg3868
I5
sg2848
I1
sg761
I1
sg3308
I2
sg1062
I6
sS'oversee'
p4630
I1
sg2040
I1
sg1667
I1
sg4274
I1
sS'resignate'
p4631
I4
sS'admit'
p4632
I1
sg3047
I7
sg1205
I3
sS'say,'
p4633
I1
sg497
I5
sg3863
I3
sS'dominate,'
p4634
I1
sg291
I1
sS'happen,'
p4635
I1
sS'authorize'
p4636
I1
sg434
I2
sg3334
I1
sg370
I1
sS'supply'
p4637
I2
sg390
I1
sg3497
I3
sg3910
I1
sg108
I1
sg1315
I1
sg3042
I1
sS'apply'
p4638
I3
sg1435
I4
sg411
I6
sS'power,'
p4639
I1
sS'raise'
p4640
I1
sg2907
I2
sg745
I4
sg2646
I3
sg1583
I1
sg1274
I1
sg151
I4
sg2968
I2
sS'1,000,'
p4641
I1
sg3369
I1
sg440
I2
sg3182
I2
sg2394
I1
sg424
I1
sg2445
I3
sg219
I3
sg243
I8
sg4421
I3
sS'confront,'
p4642
I1
sg252
I1
sg1615
I1
sg1089
I1
sS'fund'
p4643
I2
sS'lift'
p4644
I1
sg499
I3
sS'gain'
p4645
I2
sg3826
I1
sg2962
I1
sg2943
I1
sg502
I4
sS'open,'
p4646
I1
sg4369
I3
sg3586
I1
sg509
I2
sg1310
I2
sg3199
I1
sg1353
I4
sg492
I2
sg2946
I1
sg1652
I1
sS'remain'
p4647
I1
sg2588
I1
sg1383
I1
sg533
I1
sg1458
I6
sg70
I1
sg1736
I1
sS'bet'
p4648
I1
sS'evade'
p4649
I1
sg3520
I1
sg481
I1
sg908
I2
sg55
I1
sg571
I3
sg3629
I2
sS'buy'
p4650
I4
sg4310
I1
sg296
I4
sS'crash'
p4651
I1
sS'rid'
p4652
I1
sg590
I7
sg1165
I1
sS'plan,'
p4653
I1
sg2277
I4
sg204
I1
sg244
I3
sg775
I3
sg435
I1
sg1453
I1
sg359
I1
sg819
I1
sg415
I16
sg2590
I1
sg4525
I1
sg1102
I1
sS'unite'
p4654
I1
sg950
I1
sS'win,"'
p4655
I1
sg2097
I2
sS'winning'
p4656
I1
sg422
I3
sS'cling'
p4657
I1
sg121
I1
sg3191
I3
sS'assassinate'
p4658
I1
sg584
I2
sg1209
I2
sg2612
I1
sg4503
I1
sg250
I1
sg3682
I2
sg4202
I2
sg3684
I1
sS'defeat'
p4659
I1
sg1201
I1
sS'highlight'
p4660
I1
sg1211
I1
sS'inspections,'
p4661
I1
sS'promote'
p4662
I2
sg2349
I2
sS'date'
p4663
I1
sg489
I1
sg2860
I1
sg34
I3
sS'grow'
p4664
I3
sg937
I1
sg687
I2
sg1449
I1
sg632
I1
sg3067
I1
sS'seize'
p4665
I1
sg491
I3
sg3615
I3
sS'fulfill'
p4666
I1
sg3711
I1
sg2651
I1
sg606
I1
sS'act,'
p4667
I2
sg609
I2
sg3795
I1
sg2427
I1
sg45
I32
sg3702
I1
sS'spend'
p4668
I1
sS'terrorism,'
p4669
I2
ssg1948
(dp4670
g830
I1
sS'prior'
p4671
I1
sg23
I3
sg42
I1
sg40
I1
sS'said,'
p4672
I1
sg257
I1
sNI4
ssg3345
(dp4673
g89
I1
sNI2
ssg4440
(dp4674
g504
I1
ssg2289
(dp4675
g3990
I1
sg1228
I6
ssS'pledges'
p4676
(dp4677
NI1
ssg393
(dp4678
g60
I1
ssg3521
(dp4679
g182
I1
ssg1569
(dp4680
NI1
ssg3426
(dp4681
g372
I1
ssg3795
(dp4682
g631
I1
sS'refused'
p4683
I1
sg210
I2
sg219
I2
ssg1700
(dp4684
g683
I1
ssS'mutilation,'
p4685
(dp4686
g60
I1
ssg3554
(dp4687
NI1
ssS'sons'
p4688
(dp4689
g477
I1
ssg1881
(dp4690
g960
I1
ssS'decide'
p4691
(dp4692
g132
I1
ssS'fall'
p4693
(dp4694
g960
I1
ssS'difference'
p4695
(dp4696
g42
I1
ssS'college,'
p4697
(dp4698
S'jan'
p4699
I1
ssS'condition'
p4700
(dp4701
g31
I2
ssS'treating'
p4702
(dp4703
g3621
I1
ssg1642
(dp4704
g735
I1
ssS'pledge,'
p4705
(dp4706
g60
I1
ssg3482
(dp4707
g89
I1
ssg4472
(dp4708
g3949
I1
ssS'joined'
p4709
(dp4710
g42
I1
ssg1061
(dp4711
g187
I1
sg431
I1
ssg134
(dp4712
g1378
I1
sg592
I1
sS'witnesses'
p4713
I1
sg785
I1
sg1956
I1
sg3287
I1
sg3620
I1
sg1292
I1
sg799
I1
sS'outcomes'
p4714
I1
sS'horrors'
p4715
I1
sg21
I1
sS'standards,'
p4716
I1
sS'uavs'
p4717
I1
sS'prohibited'
p4718
I1
sg340
I3
sg2318
I2
sg71
I1
sg1486
I1
sg1099
I1
sS'reductions,'
p4719
I1
sS'issues,'
p4720
I1
sg50
I1
sg2039
I1
sS'capabilities,'
p4721
I1
sS'measures,'
p4722
I1
sg998
I1
sg965
I1
sg257
I4
sg3728
I1
sg119
I1
sg4143
I1
sS'dangers,'
p4723
I1
sg1929
I2
sS'steps,'
p4724
I2
sg2353
I1
sg822
I1
sg346
I1
sg1114
I1
ssg443
(dp4725
g3269
I2
sg9
I1
ssg222
(dp4726
S'matters'
p4727
I1
sS'businesses'
p4728
I2
sg552
I3
sg517
I1
sg3267
I1
sNI1
sg2738
I1
ssg1534
(dp4729
g257
I11
sS'weapons,'
p4730
I1
sg2968
I2
sg1412
I3
sg60
I1
sg2039
I1
sg3020
I1
sS'or,'
p4731
I1
sg431
I2
ssg2539
(dp4732
g23
I1
ssg2045
(dp4733
S'century,'
p4734
I2
sg2690
I4
ssS'debates,'
p4735
(dp4736
g643
I3
ssg4619
(dp4737
g18
I1
ssg1895
(dp4738
g89
I1
ssS'nearing'
p4739
(dp4740
g571
I1
ssg1574
(dp4741
g752
I1
ssg1897
(dp4742
g60
I1
sg86
I3
sNI2
ssS'design'
p4743
(dp4744
g31
I2
ssg3174
(dp4745
g243
I5
sg1755
I1
sg2916
I1
sg134
I1
sg374
I1
sg2843
I1
sg1225
I1
ssg2783
(dp4746
g2039
I1
sS'destruction,'
p4747
I1
sg799
I1
ssg4091
(dp4748
g1753
I1
ssS'investment'
p4749
(dp4750
g407
I1
ssg4719
(dp4751
g60
I1
ssg1159
(dp4752
g407
I1
sg23
I1
sg85
I1
sg620
I1
sg683
I5
sg45
I5
sg350
I5
sg583
I3
ssS'hesitation'
p4753
(dp4754
NI1
ssg1742
(dp4755
g41
I1
ssS'witnessed'
p4756
(dp4757
S"iraq's"
p4758
I1
ssg4209
(dp4759
g459
I1
ssg4713
(dp4760
g23
I1
sNI1
sg477
I1
ssg4625
(dp4761
g778
I1
ssg4503
(dp4762
S'nidal,'
p4763
I1
sS'abbas,'
p4764
I1
ssg1975
(dp4765
g60
I2
sg1014
I1
sg182
I1
sg296
I1
ssg3167
(dp4766
g45
I1
ssg1021
(dp4767
g960
I1
sg26
I3
ssg4627
(dp4768
g60
I1
sS'schools,'
p4769
I1
sg1322
I1
sg719
I1
ssS'why...'
p4770
(dp4771
g1957
I1
ssg671
(dp4772
g178
I2
sg3817
I1
sg251
I1
sg1129
I1
sg89
I1
sg2000
I1
sS'arsenal'
p4773
I1
ssg1613
(dp4774
g60
I1
sg42
I1
ssS'mad'
p4775
(dp4776
g1390
I1
ssg1572
(dp4777
g389
I1
sg752
I1
ssS"nation's"
p4778
(dp4779
g1824
I1
sg2047
I1
sg107
I1
ssg4445
(dp4780
g1107
I1
ssg1734
(dp4781
g1773
I1
ssS'rebuilt,'
p4782
(dp4783
g214
I1
ssg4308
(dp4784
g86
I1
ssg1607
(dp4785
g60
I1
sg960
I1
ssg4272
(dp4786
S'8th,'
p4787
I1
ssg15
(dp4788
g60
I2
sg296
I1
sg86
I14
sg212
I1
sg500
I1
sg419
I1
sg2476
I1
sS'employs'
p4789
I1
sg42
I2
sNI14
sg76
I1
sg800
I1
sg411
I1
sg2798
I1
sg171
I3
sg4238
I1
sg1947
I1
sg819
I1
sg1084
I2
sg23
I4
sg2707
I1
sg348
I11
sg40
I2
sS'acquire'
p4790
I1
sg1823
I1
sg4443
I1
sg26
I2
sg2417
I1
sg2567
I3
sg1754
I1
sg3032
I1
sg19
I1
sg477
I1
sg418
I1
sg31
I1
sg1310
I1
sg622
I1
sg89
I1
sg738
I3
sg2791
I1
sg407
I3
sg620
I1
sg1581
I1
sg1759
I1
sg24
I1
ssg3776
(dp4791
S'people,'
p4792
I1
ssg4306
(dp4793
g60
I1
ssg675
(dp4794
g89
I1
sNI2
ssS'compliance'
p4795
(dp4796
g19
I1
ssg1914
(dp4797
g60
I1
sg4224
I1
sS'submission'
p4798
I1
ssg1650
(dp4799
g2713
I1
ssg4671
(dp4800
g23
I1
ssg1915
(dp4801
g89
I2
sNI1
ssg594
(dp4802
g1123
I7
ssg342
(dp4803
g407
I1
sg86
I4
sNI2
sg1481
I1
sg2139
I5
ssS'narrow'
p4804
(dp4805
NI1
ssS'options'
p4806
(dp4807
g23
I1
ssg3803
(dp4808
g23
I1
ssg1918
(dp4809
g2024
I1
sg592
I1
sg551
I1
sg1186
I1
sg4795
I1
ssg4636
(dp4810
g45
I1
ssg4388
(dp4811
g89
I1
sNI5
ssg3502
(dp4812
g3329
I1
sg42
I1
ssg2253
(dp4813
g2916
I2
sg778
I1
sg1460
I1
ssg2195
(dp4814
g60
I2
sNI2
sS'describes'
p4815
I1
sg1194
I1
ssg486
(dp4816
g3591
I1
sg1999
I4
sg45
I1
sg55
I1
sg735
I1
sg1707
I1
ssS'parties,'
p4817
(dp4818
g60
I1
ssg4170
(dp4819
g60
I1
sg778
I3
sg2091
I1
ssS'know,'
p4820
(dp4821
g434
I4
sg45
I4
sg31
I1
ssg2656
(dp4822
g1123
I1
sg752
I1
sg1186
I2
ssS'estimate'
p4823
(dp4824
g26
I1
ssg2965
(dp4825
g1514
I1
sg1753
I1
ssg4067
(dp4826
g15
I1
ssS'answered'
p4827
(dp4828
g243
I1
ssg4073
(dp4829
g89
I1
ssS'praised'
p4830
(dp4831
g45
I1
ssg4319
(dp4832
g640
I1
ssS'6'
p4833
(dp4834
g2641
I1
ssg1580
(dp4835
g23
I2
sg1071
I1
sg26
I1
ssg3681
(dp4836
S'ebola,'
p4837
I1
ssg219
(dp4838
g60
I4
sg2513
I1
sg1879
I1
sg1978
I2
sg2204
I1
sg89
I5
sg3626
I1
sg18
I1
sg3421
I27
sg2906
I1
sg42
I1
sS'executions'
p4839
I1
sNI1
sS'clearly'
p4840
I1
sS'war!'
p4841
I4
sg3306
I1
sS'welcoming'
p4842
I1
sg3699
I3
sg31
I1
sg1148
I3
sS'dangerous'
p4843
I1
sg3655
I1
sg155
I1
sS'few?'
p4844
I4
sg4463
I1
sg20
I2
sg257
I1
sg3605
I1
sg222
I1
sS'difficult'
p4845
I1
sg457
I1
ssg373
(dp4846
g60
I1
sNI1
sg42
I1
ssg1934
(dp4847
g26
I1
ssg3710
(dp4848
g2098
I1
ssS'flag'
p4849
(dp4850
g2798
I1
ssg357
(dp4851
g243
I1
ssg1754
(dp4852
g434
I2
sg599
I1
ssg274
(dp4853
g23
I1
sNI1
ssg2943
(dp4854
g2509
I1
sg119
I1
sg1532
I1
ssg3810
(dp4855
g89
I1
sg85
I1
ssg3069
(dp4856
NI1
ssg4127
(dp4857
g89
I1
ssg1891
(dp4858
g89
I3
ssg254
(dp4859
g1948
I1
ssg3398
(dp4860
S'partners'
p4861
I1
sg23
I2
sg1186
I5
sg1327
I1
sg9
I1
sg86
I1
sg348
I1
sg1748
I1
ssg1491
(dp4862
g1730
I1
sg96
I1
ssS'dei'
p4863
(dp4864
g2742
I1
ssg4647
(dp4865
g243
I1
sS'unstable,'
p4866
I1
sS'unstable'
p4867
I1
sg2627
I1
sg42
I1
ssg3183
(dp4868
g23
I2
sg583
I3
sg297
I1
ssg490
(dp4869
g60
I1
sg89
I1
sg45
I2
ssg4022
(dp4870
NI1
ssg2895
(dp4871
g295
I1
ssg4101
(dp4872
NI1
ssg1767
(dp4873
g2313
I1
sg89
I4
sg3945
I1
sg348
I1
sNI3
sg4586
I1
ssS'seaports'
p4874
(dp4875
NI1
ssS'gas,'
p4876
(dp4877
g3523
I1
sg4448
I1
ssS'stated'
p4878
(dp4879
g1390
I1
sg26
I1
ssg1605
(dp4880
g1580
I1
sg89
I4
sNI2
sg245
I1
ssg908
(dp4881
g243
I1
sg372
I1
sg45
I1
sg676
I1
sg42
I1
ssg1427
(dp4882
g1227
I1
sg243
I1
sg69
I1
sg133
I2
sg434
I1
sg26
I1
sg55
I1
ssg2716
(dp4883
g60
I7
sg621
I1
sg149
I2
sg960
I1
sg250
I2
sg171
I1
sg89
I6
sg86
I1
sg1019
I1
sg1428
I1
sg407
I2
sg340
I2
sg2656
I1
sg4124
I1
sg9
I3
sg348
I1
sNI4
ssS'treatment,'
p4884
(dp4885
g85
I1
ssg3399
(dp4886
S'terrorists,'
p4887
I1
sg45
I1
ssg4333
(dp4888
g42
I4
ssg3648
(dp4889
g89
I1
sg31
I1
ssS'communities,'
p4890
(dp4891
g3535
I1
ssg4653
(dp4892
g60
I1
sg187
I1
ssg3879
(dp4893
g60
I1
sg643
I1
ssS'confronted,'
p4894
(dp4895
g60
I1
ssg2163
(dp4896
NI1
ssS'huge'
p4897
(dp4898
g964
I3
sg1548
I4
ssg1953
(dp4899
g23
I9
sg219
I1
sg89
I2
ssg201
(dp4900
g407
I1
sg86
I4
sNI1
ssg414
(dp4901
g289
I4
sg3421
I1
ssg1719
(dp4902
NI1
sg431
I1
ssg925
(dp4903
g89
I1
ssg315
(dp4904
g4685
I1
ssg4657
(dp4905
g23
I1
ssg4724
(dp4906
g60
I1
sg45
I1
ssg3697
(dp4907
g23
I3
sg924
I1
sS'containment,'
p4908
I1
sg7
I1
sS'nofly'
p4909
I1
sg45
I1
sg1888
I1
ssg3097
(dp4910
g60
I1
sS'evading,'
p4911
I1
ssg3577
(dp4912
S'aerial'
p4913
I1
ssg2400
(dp4914
g4510
I1
sg53
I1
sNI2
ssg2056
(dp4915
g89
I2
ssg1955
(dp4916
S'terrain'
p4917
I1
ssg243
(dp4918
S'government,'
p4919
I1
sg2129
I2
sg1243
I2
sg1047
I2
sg1818
I1
sS'scattered'
p4920
I1
sg2675
I1
sg1980
I1
sg10
I1
sS'test,'
p4921
I1
sS'decade'
p4922
I3
sS'negotiated'
p4923
I1
sg2993
I1
sg3116
I1
sg375
I2
sS'450million'
p4924
I1
sS'shortcut'
p4925
I1
sg215
I1
sg1990
I1
sg1962
I1
sg755
I1
sg48
I1
sS'troubled'
p4926
I1
sg265
I1
sg592
I5
sg4651
I1
sg83
I1
sg787
I1
sg2494
I4
sg1958
I1
sg103
I1
sS'chapter,'
p4927
I4
sg115
I2
sg200
I9
sg4695
I1
sg116
I2
sg4700
I2
sS'literacy'
p4928
I4
sS'homicidal'
p4929
I1
sg4705
I1
sg3214
I1
sg2233
I1
sg2758
I1
sg2761
I1
sS'common'
p4930
I1
sg4843
I4
sg222
I2
sg1534
I1
sg174
I1
sg2053
I1
sg178
I1
sg962
I1
sS'generation'
p4931
I1
sg877
I1
sS'back'
p4932
I1
sg3398
I2
sS'culture'
p4933
I1
sg419
I1
sg2582
I1
sg4743
I2
sg598
I1
sg2505
I6
sg965
I1
sg227
I1
sg374
I13
sg912
I1
sS'highranking'
p4934
I1
sg2289
I1
sg247
I6
sg1331
I1
sg443
I1
sg671
I1
sg474
I1
sg958
I2
sg4778
I1
sS'translated'
p4935
I1
sg105
I1
sS'70percent'
p4936
I1
sg3878
I1
sg1556
I1
sS'prelude'
p4937
I1
sg1134
I1
sg2570
I1
sg2850
I1
sg1071
I3
sg2061
I2
sg2857
I1
sg964
I1
sg1913
I1
sg3409
I2
sg1914
I1
sg1003
I4
sg3319
I1
sg3322
I2
sg1040
I5
sg4409
I1
sg9
I1
sg2802
I1
sS'hijacking'
p4938
I1
sg3331
I1
sg1919
I1
sg4311
I2
sg370
I1
sg4388
I1
sg4400
I1
sg4077
I1
sg1683
I1
sS'strategy,'
p4939
I1
sg385
I8
sg2378
I1
sg3350
I4
sg3922
I1
sg953
I4
sS'script'
p4940
I1
sg4351
I1
sg427
I1
sg3305
I5
sg1435
I1
sS'few'
p4941
I1
sg4407
I10
sS'frivolous'
p4942
I1
sg1545
I5
sg3375
I1
sg219
I1
sg98
I1
sg1608
I1
sg454
I1
sg1854
I1
sg1620
I1
sg189
I1
sg3134
I1
sg3590
I1
sg107
I5
sg2302
I1
sg1941
I3
sg2076
I1
sg2940
I1
sg492
I1
sg555
I5
sg2077
I1
sS'pace'
p4943
I1
sg2078
I2
sS'world,'
p4944
I1
sg2972
I2
sg2081
I1
sg1767
I2
sS'sizeable'
p4945
I1
sS'process'
p4946
I1
sg553
I3
sg4493
I1
sg1715
I1
sS'single'
p4947
I5
sg3648
I1
sg4013
I1
sg3605
I1
sg210
I1
sg4897
I7
sg1355
I1
sg244
I3
sS'dictatorship,'
p4948
I4
sg2576
I1
sS'contest'
p4949
I1
sg4416
I1
sg2590
I1
sg119
I1
sg4527
I1
sg1844
I2
sg1169
I1
sg1085
I1
sg4332
I1
sg4845
I1
sg849
I1
sg1909
I1
sg2202
I1
sg4547
I1
sg725
I3
sg3749
I1
sS'student'
p4950
I1
sg739
I4
sg456
I1
sg684
I1
sg3291
I1
sg1217
I2
sg111
I2
sg2137
I1
sg2113
I2
sg114
I1
sg800
I1
sg4028
I1
sS'robot'
p4951
I1
sg1902
I1
sS'severe'
p4952
I1
sg3845
I3
sg2658
I1
sg4128
I1
sg2460
I3
ssg1449
(dp4953
g23
I1
sg676
I1
ssg1817
(dp4954
g89
I1
ssg3407
(dp4955
g60
I1
sg3993
I1
sg45
I1
ssg3538
(dp4956
g89
I1
ssS'presidents,'
p4957
(dp4958
g60
I1
ssg1972
(dp4959
g89
I1
sNI2
ssg1440
(dp4960
g45
I1
ssg2104
(dp4961
g2081
I1
sg2061
I1
sg99
I1
ssg3410
(dp4962
g45
I2
sg735
I1
ssS'cruelties'
p4963
(dp4964
g531
I1
ssg3666
(dp4965
NI5
ssg4453
(dp4966
g19
I4
ssg2560
(dp4967
g243
I5
sg1739
I1
sg359
I1
sg45
I1
sg1481
I3
sg4770
I1
sg571
I1
ssS'army,'
p4968
(dp4969
g60
I1
sg1647
I1
ssg2594
(dp4970
g162
I1
ssS'iranian,'
p4971
(dp4972
g874
I1
ssg1977
(dp4973
g2781
I1
sg581
I1
sg434
I1
sg89
I1
sg571
I1
sg162
I1
sg3497
I1
sg372
I1
sg45
I4
sg983
I1
sg19
I1
sg583
I2
ssS"don't"
p4974
(dp4975
g3067
I2
sg579
I4
sg101
I3
sg816
I3
sg291
I5
sg891
I1
sg2612
I4
ssg661
(dp4976
g45
I10
ssg3545
(dp4977
g1802
I1
ssg3546
(dp4978
g331
I1
sg187
I2
sNI1
ssg945
(dp4979
S"iraq's"
p4980
I1
ssS'held'
p4981
(dp4982
g4115
I1
sg301
I1
ssS'embassy'
p4983
(dp4984
g42
I2
ssg2916
(dp4985
g243
I1
sg434
I1
sg1382
I1
sNI3
sg263
I1
sg3609
I1
sg2598
I1
sg71
I1
sg4015
I1
sg599
I1
sg2131
I1
ssg4654
(dp4986
g60
I1
ssg2801
(dp4987
g23
I2
ssg1984
(dp4988
g132
I1
ssg599
(dp4989
S'inaction,'
p4990
I1
sg2614
I2
sg176
I1
sg551
I5
sg796
I1
sg251
I1
sg3154
I2
sg1865
I2
sS'banned'
p4991
I1
sS'citizens,'
p4992
I1
sg1979
I2
sg958
I1
sg1897
I1
sg2054
I1
sg1866
I3
sg2018
I1
sg2664
I1
sS'responsibilities,'
p4993
I1
sg3060
I1
sg3635
I1
sg4393
I1
sg689
I1
sg797
I1
sS'people,'
p4994
I1
sg993
I1
sg745
I1
sg962
I2
sS'drive'
p4995
I1
sg257
I4
sg3857
I1
sg323
I1
sg2188
I1
sg374
I5
sg3799
I1
sg1767
I1
ssg628
(dp4996
S'dripping'
p4997
I1
ssg550
(dp4998
S'somewhat,'
p4999
I3
ssS'27'
p5000
(dp5001
g4470
I1
ssg4070
(dp5002
g1327
I1
ssg3430
(dp5003
g474
I1
ssg3055
(dp5004
g683
I1
sg60
I1
sg269
I1
sg31
I1
ssg4285
(dp5005
g4430
I1
ssg3730
(dp5006
g4515
I1
sS'work,'
p5007
I1
ssg1070
(dp5008
g23
I1
sNI1
sg31
I2
sS'1990s,'
p5009
I1
ssg1927
(dp5010
g45
I1
ssS'systems'
p5011
(dp5012
g310
I1
ssS'founders'
p5013
(dp5014
g1424
I1
ssg1099
(dp5015
g23
I1
sg1658
I1
sg42
I1
sg908
I1
sNI1
ssg1944
(dp5016
S'try'
p5017
I1
sg89
I4
sg432
I1
sg331
I1
ssg2971
(dp5018
g45
I1
ssS"haven't"
p5019
(dp5020
g733
I1
ssg1617
(dp5021
g187
I1
ssg592
(dp5022
g1341
I2
sg31
I1
sg1439
I1
sg89
I1
sS'benchmark'
p5023
I1
sS'relations'
p5024
I3
sg18
I1
sS'record'
p5025
I1
sg187
I1
sg2191
I1
sS'works'
p5026
I1
sS'night,'
p5027
I1
sS'insurance'
p5028
I1
ssg1823
(dp5029
g23
I1
sg322
I1
sS'stolen'
p5030
I1
sS'safely'
p5031
I1
sg45
I1
ssg2399
(dp5032
NI1
ssg1720
(dp5033
g374
I1
ssg1999
(dp5034
g60
I2
sg132
I4
sg1948
I1
sNI1
sg1660
I1
ssS'propose'
p5035
(dp5036
g243
I2
sg1571
I1
sg45
I1
ssg2051
(dp5037
g89
I1
ssS'it?'
p5038
(dp5039
NI1
ssS"you've"
p5040
(dp5041
g932
I1
ssS'foot'
p5042
(dp5043
g42
I1
ssg4839
(dp5044
g89
I1
ssg1704
(dp5045
g60
I1
ssg1705
(dp5046
g1063
I1
ssg1274
(dp5047
g60
I2
sg1405
I1
sg43
I1
sg42
I1
sg212
I1
sg19
I1
sg2568
I1
ssg3304
(dp5048
g85
I1
ssS'all,'
p5049
(dp5050
g60
I1
sg372
I1
ssg4649
(dp5051
g1014
I1
ssg4567
(dp5052
g372
I1
sg45
I1
sg34
I2
ssS'tear'
p5053
(dp5054
g504
I1
ssg1455
(dp5055
g243
I1
sg244
I1
sg211
I1
sg752
I1
ssg3483
(dp5056
NI1
ssg516
(dp5057
g45
I1
sg24
I1
sg26
I1
ssg1711
(dp5058
g1263
I1
ssg2888
(dp5059
g60
I1
ssg1965
(dp5060
g60
I1
sg132
I1
sNI1
ssg2281
(dp5061
g182
I1
ssg3664
(dp5062
g1675
I3
ssg2012
(dp5063
g89
I1
ssg4931
(dp5064
NI1
ssg2013
(dp5065
g60
I1
ssg3561
(dp5066
g620
I4
ssg624
(dp5067
g23
I3
sg55
I4
ssg3562
(dp5068
g962
I3
ssg4291
(dp5069
g171
I1
ssg4232
(dp5070
g3253
I1
ssg3203
(dp5071
g89
I1
sg55
I1
ssg2960
(dp5072
g1965
I1
sg3617
I1
ssg4424
(dp5073
g23
I1
ssg1157
(dp5074
g418
I1
sg1948
I1
sNI2
ssg1107
(dp5075
g45
I2
sNI3
sg322
I1
ssg5028
(dp5076
S'policy,'
p5077
I1
ssg281
(dp5078
g86
I1
sS"don't"
p5079
I4
ssS'pilot,'
p5080
(dp5081
g46
I1
ssg1299
(dp5082
g1942
I1
sg85
I1
sS'then,'
p5083
I1
sg661
I1
sg45
I1
sg211
I1
ssg4093
(dp5084
g60
I1
sg3565
I1
ssg4299
(dp5085
g60
I1
sg3207
I1
sg108
I1
ssS'killed,'
p5086
(dp5087
g2843
I1
ssg3202
(dp5088
g188
I1
ssg2025
(dp5089
g89
I3
sNI1
ssg2784
(dp5090
g474
I1
ssg3571
(dp5091
g23
I1
ssg1887
(dp5092
g1514
I1
sS"doesn't"
p5093
I4
sg299
I1
ssS'plotting'
p5094
(dp5095
g2783
I1
ssg4628
(dp5096
g60
I1
ssS'risen'
p5097
(dp5098
g23
I1
ssg4298
(dp5099
g2843
I1
ssg643
(dp5100
g322
I2
sg434
I1
sS"it's"
p5101
I4
sg3810
I1
sg55
I3
sg23
I2
sg2097
I1
sS"we're"
p5102
I3
sg583
I2
sg76
I1
sS'anthrax,'
p5103
I1
ssg3831
(dp5104
NI1
ssg105
(dp5105
g683
I1
sg23
I2
sg85
I5
sNI1
sg45
I1
ssg1051
(dp5106
g1441
I1
sg89
I9
sg2646
I1
sg42
I1
ssg2518
(dp5107
g676
I1
ssg3192
(dp5108
g616
I1
sg31
I1
sg250
I1
sg45
I3
sg1481
I1
sg583
I5
ssS'litigation,'
p5109
(dp5110
g2900
I1
ssg4532
(dp5111
g243
I4
sg45
I3
ssS'beginning'
p5112
(dp5113
g23
I1
ssg3507
(dp5114
g60
I1
ssg3290
(dp5115
S'junior'
p5116
I1
ssS'demands,'
p5117
(dp5118
g60
I1
ssg3581
(dp5119
g31
I1
ssg3409
(dp5120
g257
I1
sg646
I1
sg50
I2
sg2302
I1
sS'disease'
p5121
I1
sg3255
I1
ssg1102
(dp5122
g60
I4
sg3904
I1
sg98
I1
sg5080
I1
sg552
I1
sg962
I7
sS'justice'
p5123
I1
sg3305
I1
sg4380
I1
sg4849
I1
sg4983
I2
sg1607
I1
sg709
I1
sg1601
I2
sg456
I1
sg2656
I1
sg9
I1
sg3968
I1
ssg4764
(dp5124
g182
I1
ssg1040
(dp5125
S'now,'
p5126
I2
sg46
I1
sg605
I1
sg188
I1
sg960
I2
sg60
I1
sg26
I1
sg89
I1
sg86
I3
sg2214
I1
sg3201
I1
sS'integration'
p5127
I1
sg23
I9
sS'hides'
p5128
I1
sg1384
I1
sNI3
sg45
I1
sg287
I1
ssS'consequence'
p5129
(dp5130
NI1
ssS'doctors,'
p5131
(dp5132
g60
I1
ssg3314
(dp5133
g219
I1
ssg4634
(dp5134
S'intimidate,'
p5135
I1
ssS'initiative,'
p5136
(dp5137
g23
I1
ssg1120
(dp5138
g42
I1
sg26
I2
ssg4311
(dp5139
g4874
I1
sg2091
I1
sg4093
I1
ssg2621
(dp5140
g85
I1
ssg1093
(dp5141
g3343
I1
ssg3582
(dp5142
g4437
I1
sNI1
ssg3578
(dp5143
g3638
I1
ssg698
(dp5144
NI3
sg4586
I3
ssg1892
(dp5145
g60
I1
sg582
I1
ssg288
(dp5146
S'before,'
p5147
I1
sNI1
sg778
I1
sg1160
I1
ssg4147
(dp5148
g60
I1
ssg99
(dp5149
g295
I1
sNI1
sg752
I1
ssg2543
(dp5150
g85
I1
ssS'horse'
p5151
(dp5152
g60
I3
ssg1747
(dp5153
g290
I1
ssg4940
(dp5154
g23
I1
ssg1691
(dp5155
g45
I1
ssg2060
(dp5156
g133
I1
ssg2063
(dp5157
g778
I1
sg2529
I1
sS'20,000'
p5158
I1
sg4753
I1
ssg2064
(dp5159
NI1
ssg1027
(dp5160
g263
I1
sg322
I1
sg1518
I1
sg219
I1
ssS'property,'
p5161
(dp5162
g1427
I1
ssg2066
(dp5163
g1469
I1
ssg4323
(dp5164
S'forest'
p5165
I1
ssS'option'
p5166
(dp5167
NI2
ssg2533
(dp5168
g1481
I1
ssg4496
(dp5169
g45
I1
sg2553
I1
sg31
I1
sg24
I1
ssS'interviewed'
p5170
(dp5171
g2434
I1
ssg1018
(dp5172
g60
I1
sg3014
I1
sg2544
I1
ssg4342
(dp5173
g60
I3
ssg1575
(dp5174
g89
I2
sNI1
ssg3591
(dp5175
g60
I1
sg132
I1
sNI1
ssg1022
(dp5176
g26
I1
sg85
I1
sg15
I1
sg45
I1
sg42
I3
ssg355
(dp5177
g26
I1
ssg4329
(dp5178
S'mustard'
p5179
I1
ssg2076
(dp5180
g89
I9
sg285
I1
ssS'iranian'
p5181
(dp5182
g640
I1
ssS'bitter'
p5183
(dp5184
g2721
I1
ssS'navlink,'
p5185
(dp5186
g45
I1
ssg1709
(dp5187
g23
I1
sg109
I1
ssg1992
(dp5188
g1803
I1
sg37
I1
ssS'supposed'
p5189
(dp5190
g23
I1
ssS'eh!.'
p5191
(dp5192
NI1
ssg525
(dp5193
g4537
I1
sg243
I2
sg2025
I1
sg2248
I1
sg45
I1
sS'tragedy,'
p5194
I1
sg571
I1
ssg1581
(dp5195
g769
I1
sg45
I1
sg1102
I1
ssS'unrelenting'
p5196
(dp5197
g1307
I1
ssg4025
(dp5198
S'technology,'
p5199
I1
ssg4089
(dp5200
g45
I1
ssg3520
(dp5201
g45
I1
sg2672
I1
sg2469
I1
ssS'imports'
p5202
(dp5203
g361
I4
ssg3161
(dp5204
S'reluctantly,'
p5205
I1
ssg2090
(dp5206
g89
I1
ssg1778
(dp5207
g342
I5
ssg4122
(dp5208
g60
I1
ssg2545
(dp5209
g223
I1
ssg3967
(dp5210
g3042
I1
sNI2
ssS'vulnerable'
p5211
(dp5212
g640
I1
ssg4364
(dp5213
g676
I1
ssg3401
(dp5214
g675
I1
ssg2029
(dp5215
g45
I1
ssS'built'
p5216
(dp5217
g3034
I1
ssS'procurement'
p5218
(dp5219
g3072
I1
ssS'officers'
p5220
(dp5221
g340
I1
ssg418
(dp5222
g4235
I1
sg3067
I1
sg3697
I1
sg569
I1
sg3520
I1
sg296
I1
sg1917
I1
sg1020
I1
sg416
I1
sg2492
I1
sg3579
I1
sS'lose'
p5223
I1
sg3535
I1
sg331
I2
sg348
I1
sg832
I1
sg1759
I1
sg2570
I1
sg477
I1
ssg2550
(dp5224
g45
I1
ssg3525
(dp5225
g1707
I1
ssg4723
(dp5226
g42
I1
ssg4612
(dp5227
g243
I4
sg4138
I1
sg60
I2
ssS'finding'
p5228
(dp5229
g15
I1
ssg2102
(dp5230
g60
I1
ssg2158
(dp5231
S'rooms'
p5232
I1
ssg4443
(dp5233
g313
I2
sg3472
I1
ssS'centrifuges,'
p5234
(dp5235
g3253
I1
ssg2995
(dp5236
g533
I1
ssg3620
(dp5237
g23
I1
sNI2
ssg2033
(dp5238
g89
I1
ssg3608
(dp5239
g322
I1
ssg2108
(dp5240
g1739
I6
sg4026
I1
sg4843
I1
sg1275
I2
sg2658
I1
sg89
I4
sS'profound'
p5241
I1
sg3409
I1
sg5211
I1
sS'afflicted'
p5242
I1
ssg896
(dp5243
g397
I1
ssg2110
(dp5244
g132
I1
ssg2293
(dp5245
g26
I1
ssS'significant'
p5246
(dp5247
S'quantities'
p5248
I1
ssg3612
(dp5249
g42
I1
ssg1303
(dp5250
g23
I2
sg214
I1
sg643
I1
ssg4331
(dp5251
g55
I1
ssg2352
(dp5252
g1217
I1
ssg2963
(dp5253
g3502
I1
ssg4665
(dp5254
g2097
I1
ssg1802
(dp5255
g257
I1
sg1534
I1
ssg1712
(dp5256
g1159
I1
sg4173
I1
sg1254
I1
sg372
I4
sg1219
I1
sg182
I1
sNI2
sg85
I1
sg4176
I1
sg2092
I1
ssg1737
(dp5257
g584
I1
sg446
I1
ssS'giving'
p5258
(dp5259
g2502
I1
sg912
I1
ssg2548
(dp5260
g683
I1
ssS'security,'
p5261
(dp5262
g60
I2
sg340
I1
sg3253
I1
ssg4533
(dp5263
g407
I1
sg571
I1
ssg2121
(dp5264
g89
I1
ssg1741
(dp5265
g19
I1
sg735
I1
ssS'perseverance'
p5266
(dp5267
g86
I1
ssg2485
(dp5268
S'cut'
p5269
I1
ssg1865
(dp5270
g151
I3
sg187
I3
sNI4
ssS'consult'
p5271
(dp5272
NI1
ssg4920
(dp5273
g906
I1
ssg2254
(dp5274
NI1
sg752
I1
ssS'session'
p5275
(dp5276
g89
I1
ssg4728
(dp5277
g23
I1
sNI1
ssS"nations'"
p5278
(dp5279
g1157
I1
ssg1081
(dp5280
g23
I1
sg85
I1
ssg4284
(dp5281
g60
I4
sg207
I1
sg397
I1
sg5216
I1
sg26
I1
sg372
I1
sg583
I1
sS'however,'
p5282
I1
ssg1431
(dp5283
g243
I2
sg2040
I1
sg322
I1
sg1194
I1
sg3504
I1
ssg4071
(dp5284
g15
I1
ssg4934
(dp5285
g79
I1
ssg5123
(dp5286
NI1
ssg265
(dp5287
g60
I2
sg407
I1
sg23
I1
sg26
I2
sg434
I1
sg89
I2
sg45
I1
sg41
I2
ssg4390
(dp5288
g583
I1
ssS'failed'
p5289
(dp5290
g23
I1
sg204
I1
ssg4038
(dp5291
g4539
I1
ssg420
(dp5292
g45
I1
ssS'pretty'
p5293
(dp5294
g623
I3
ssS'biological,'
p5295
(dp5296
g60
I1
ssg269
(dp5297
g551
I8
sg2077
I1
sg375
I3
sg962
I1
sg1961
I1
sg306
I1
sg3481
I1
sg38
I1
sg800
I2
sg244
I1
sg1390
I1
sg964
I3
sS'capabilities'
p5298
I1
sg4676
I1
sS'nick'
p5299
I1
sg1532
I2
sg4688
I1
sS'contempt'
p5300
I1
sS'frustration'
p5301
I1
sg374
I4
sg9
I1
sg757
I1
sg1594
I1
sg1626
I1
sg4627
I1
sg4963
I1
ssg1878
(dp5302
g1051
I1
ssg4911
(dp5303
g60
I1
ssS'dependent'
p5304
(dp5305
g132
I1
ssg4991
(dp5306
S'weapons,'
p5307
I1
ssg734
(dp5308
g1407
I1
ssg3480
(dp5309
g60
I1
sNI1
ssS'preparing'
p5310
(dp5311
g23
I1
ssg2906
(dp5312
g19
I2
sg3421
I1
ssg2232
(dp5313
g752
I1
ssg2497
(dp5314
g434
I1
sg45
I1
sg3253
I1
ssg4620
(dp5315
g60
I1
sg960
I1
sg187
I1
sNI2
ssg112
(dp5316
g45
I1
sg182
I1
sg86
I2
sg26
I1
ssg1886
(dp5317
g60
I1
sg23
I1
sg134
I1
sg89
I1
sg86
I1
sg45
I1
ssg2587
(dp5318
g60
I1
sg187
I1
sNI1
ssg1889
(dp5319
NI1
sg1390
I1
ssg4289
(dp5320
g60
I2
ssS'regulations,'
p5321
(dp5322
g1753
I1
ssg4930
(dp5323
g112
I1
sg1123
I1
sg2582
I1
sS'challenge'
p5324
I1
ssg2151
(dp5325
g3413
I1
ssg484
(dp5326
g2111
I1
sg45
I1
sg322
I1
sg24
I1
ssg4618
(dp5327
g1157
I1
ssg123
(dp5328
g26
I1
ssg1945
(dp5329
g45
I1
sg1084
I1
ssg5135
(dp5330
g431
I1
ssg1016
(dp5331
g243
I2
sg571
I1
sg31
I1
sS"history's"
p5332
I1
sg5042
I1
sg45
I1
sg1551
I1
sg290
I1
ssg1434
(dp5333
S'overnight,'
p5334
I1
sS'historic'
p5335
I1
ssg1382
(dp5336
g60
I2
sg605
I1
sg567
I1
sg3705
I1
sS'sources'
p5337
I3
sS'gathered'
p5338
I1
sg26
I1
sg5220
I1
sg577
I1
sg2704
I1
sg4433
I1
sS'services'
p5339
I1
sg1266
I1
ssg4933
(dp5340
g26
I1
ssg416
(dp5341
g243
I2
sg151
I1
sg581
I1
sg55
I4
sg5181
I1
ssg4363
(dp5342
g1263
I1
ssg3397
(dp5343
g1178
I1
ssg2086
(dp5344
g100
I2
ssg623
(dp5345
g531
I1
sg23
I3
ssg1899
(dp5346
g2039
I1
sNI3
sg1110
I1
sg171
I1
ssg3491
(dp5347
g48
I1
ssg3489
(dp5348
g45
I2
ssg50
(dp5349
g132
I1
sg246
I1
sg23
I1
sg19
I1
sg89
I2
sg1353
I1
sg26
I1
sNI1
sg86
I1
ssS'visiting'
p5350
(dp5351
g2481
I1
ssg1906
(dp5352
g85
I1
sg69
I1
sg397
I1
sg15
I1
sg45
I1
sg34
I1
sg37
I1
ssg3436
(dp5353
g1102
I1
ssg2079
(dp5354
S'penalty,'
p5355
I1
ssg2962
(dp5356
g15
I1
sg219
I1
ssg2451
(dp5357
g60
I1
ssg301
(dp5358
g1410
I4
sg1249
I2
ssg2080
(dp5359
g60
I1
sg23
I1
sg89
I1
ssg4096
(dp5360
g243
I1
ssS'korea'
p5361
(dp5362
g960
I1
ssg1017
(dp5363
S'sought'
p5364
I1
sg3624
I1
ssS'hardship'
p5365
(dp5366
NI1
ssS'targeted'
p5367
(dp5368
g31
I1
ssS'intimidated'
p5369
(dp5370
g752
I1
ssS'attention'
p5371
(dp5372
g19
I1
ssS'spray'
p5373
(dp5374
g2734
I1
ssg3496
(dp5375
g42
I1
ssg1520
(dp5376
g60
I1
ssS'dividend'
p5377
(dp5378
S'income,'
p5379
I1
ssg4313
(dp5380
g119
I1
ssg4937
(dp5381
g23
I1
ssS'townhall'
p5382
(dp5383
g1249
I3
ssg1912
(dp5384
g89
I1
ssg412
(dp5385
g2336
I8
sg3164
I2
sg69
I1
sS'september,'
p5386
I1
sg3804
I1
sg2505
I4
sNI1
sg2620
I1
sg4519
I1
sg495
I1
ssg4630
(dp5387
g45
I1
ssS'union,'
p5388
(dp5389
g60
I1
ssg4274
(dp5390
g5337
I1
sg3086
I1
sg1961
I4
sS'nationals'
p5391
I1
sg1139
I1
ssg3797
(dp5392
g346
I1
ssg2277
(dp5393
g502
I4
sg706
I1
sg735
I1
ssS'however,'
p5394
(dp5395
g1120
I1
sg621
I1
sS"america's"
p5396
I1
sg1702
I1
ssg122
(dp5397
g960
I1
sg431
I1
ssg4275
(dp5398
g917
I1
sg1327
I1
ssg3163
(dp5399
g2210
I5
ssg4936
(dp5400
g5269
I1
ssg1398
(dp5401
g4913
I1
ssS'liked'
p5402
(dp5403
g824
I1
ssg517
(dp5404
g60
I1
sg296
I1
sg26
I1
sg89
I1
sNI3
sg1944
I1
ssg4637
(dp5405
g134
I1
sg1660
I1
ssg485
(dp5406
g434
I2
sg45
I1
sg108
I1
ssg2524
(dp5407
g342
I1
sg45
I2
ssg4305
(dp5408
g60
I1
sg752
I1
ssg1685
(dp5409
g2687
I3
sg1855
I1
sg1068
I1
ssg3321
(dp5410
g42
I1
ssg262
(dp5411
g60
I1
ssg129
(dp5412
g45
I4
ssg4773
(dp5413
g89
I2
ssg4640
(dp5414
g45
I1
ssg3524
(dp5415
g3225
I1
sg45
I1
sg3605
I1
ssg3179
(dp5416
g45
I1
ssg152
(dp5417
g60
I1
sg2370
I1
sg4384
I1
sg4817
I1
sg400
I2
ssg3646
(dp5418
g24
I1
ssg3707
(dp5419
g398
I1
ssg4815
(dp5420
g269
I1
ssg4341
(dp5421
S'posted'
p5422
I1
ssg3182
(dp5423
g45
I2
sg34
I2
ssg4489
(dp5424
g45
I1
ssg2540
(dp5425
g360
I1
ssS'quality,'
p5426
(dp5427
g3848
I1
ssg4322
(dp5428
g1035
I1
ssg3185
(dp5429
g24
I1
sg1707
I1
ssg2519
(dp5430
g243
I1
sg582
I1
ssg4325
(dp5431
g2152
I1
sg5191
I1
ssg532
(dp5432
g34
I1
ssS"what's"
p5433
(dp5434
g45
I4
sg1739
I1
ssg2292
(dp5435
NI1
sg5234
I1
ssg3609
(dp5436
g60
I2
sg296
I1
ssg4643
(dp5437
g1532
I1
sg219
I1
ssg3266
(dp5438
g23
I1
ssg1938
(dp5439
g2024
I1
sg226
I1
ssg1866
(dp5440
g2916
I1
sg2408
I1
sg42
I1
sg26
I2
sg40
I1
sg1563
I1
ssg779
(dp5441
g389
I1
sg269
I1
sS"iraq's"
p5442
I1
ssg4391
(dp5443
g60
I1
ssg453
(dp5444
g374
I1
ssg1035
(dp5445
g60
I1
sg722
I1
sNI1
ssg5030
(dp5446
g5161
I1
ssg360
(dp5447
g605
I14
ssg2967
(dp5448
g224
I1
ssg555
(dp5449
g407
I1
sg683
I1
sg86
I1
sNI4
sg26
I1
ssg2284
(dp5450
g1753
I1
ssg4943
(dp5451
g89
I1
ssg214
(dp5452
g1014
I1
sg151
I1
sg1929
I1
sg45
I1
sg706
I1
sg1491
I1
ssg1446
(dp5453
g23
I6
ssg3637
(dp5454
g4060
I1
ssg2317
(dp5455
NI1
ssg5379
(dp5456
g683
I1
ssg2974
(dp5457
g89
I1
ssS'guide'
p5458
(dp5459
g583
I1
sg735
I1
ssg3515
(dp5460
g407
I1
ssg4945
(dp5461
S'portion'
p5462
I1
ssg1744
(dp5463
g60
I1
ssg2690
(dp5464
NI8
sg26
I4
ssg4335
(dp5465
g793
I2
ssg1933
(dp5466
g2431
I1
ssg3519
(dp5467
g45
I1
ssg2573
(dp5468
g89
I1
sNI2
sg23
I2
ssg4652
(dp5469
g2573
I1
ssg2440
(dp5470
g23
I1
ssg2800
(dp5471
g188
I1
sNI1
ssg2144
(dp5472
g372
I1
ssg3463
(dp5473
g23
I1
ssg4655
(dp5474
g45
I1
ssg349
(dp5475
g60
I1
sg188
I1
sg3894
I1
sNI2
sg738
I1
sg348
I1
sg211
I1
ssg3532
(dp5476
g4031
I1
sg545
I1
sNI4
ssg3830
(dp5477
S'program,'
p5478
I2
sg89
I1
ssg144
(dp5479
g891
I1
ssg2870
(dp5480
g60
I1
ssg2095
(dp5481
g89
I1
ssg3533
(dp5482
g89
I1
ssg4659
(dp5483
g55
I1
ssg1963
(dp5484
g89
I1
sNI1
sg26
I1
ssg1728
(dp5485
g525
I1
sg270
I1
ssg1964
(dp5486
g89
I2
sg86
I2
ssg2294
(dp5487
g187
I1
ssg3634
(dp5488
S'days,'
p5489
I2
sg3955
I1
sg1767
I1
ssg4485
(dp5490
g917
I1
ssg2556
(dp5491
S'taxes'
p5492
I1
ssS'people,'
p5493
(dp5494
g60
I2
sg182
I1
sg397
I2
sg5040
I1
sg296
I1
sg1225
I1
sg2355
I1
sS'pursues'
p5495
I1
sg219
I1
ssg3254
(dp5496
g45
I1
ssg3328
(dp5497
g182
I3
ssg3669
(dp5498
NI4
ssg1917
(dp5499
g407
I1
sg60
I1
sg45
I1
sg89
I1
ssg118
(dp5500
g60
I1
sg1019
I1
sNI2
sg620
I1
sg1251
I1
ssg2559
(dp5501
g531
I1
sg372
I1
sg45
I1
sg223
I1
ssg3735
(dp5502
g1192
I1
ssg694
(dp5503
g348
I1
sS'carried'
p5504
I1
sg26
I1
ssg4668
(dp5505
g60
I1
ssg1976
(dp5506
g1679
I1
ssg3543
(dp5507
g701
I2
ssS'mom'
p5508
(dp5509
g431
I1
ssg1681
(dp5510
g1173
I4
ssg3547
(dp5511
NI1
ssg777
(dp5512
g4830
I1
sg4782
I1
ssg2820
(dp5513
g257
I1
sg2204
I3
ssS'questions'
p5514
(dp5515
g605
I1
ssg4615
(dp5516
NI1
ssS'lives,'
p5517
(dp5518
g60
I1
sg23
I1
sg85
I1
sg776
I1
ssS'praying'
p5519
(dp5520
g19
I1
sg26
I1
ssg1986
(dp5521
g89
I1
ssS'discipline'
p5522
(dp5523
g42
I1
ssg5269
(dp5524
g45
I1
sg2206
I1
sg42
I1
ssg2585
(dp5525
g60
I1
ssg2644
(dp5526
g243
I1
ssg4924
(dp5527
g1539
I1
ssg4925
(dp5528
g23
I1
ssg1990
(dp5529
g89
I2
ssS'parents'
p5530
(dp5531
g60
I1
sg340
I1
ssS'location'
p5532
(dp5533
NI1
ssg1932
(dp5534
g1123
I1
sS'security,'
p5535
I2
sNI2
ssg390
(dp5536
g243
I4
sg55
I1
ssg1219
(dp5537
g60
I1
sg89
I3
ssg1994
(dp5538
g4497
I1
sg31
I1
ssS'march'
p5539
(dp5540
g23
I1
sg5000
I1
ssg1997
(dp5541
g2206
I1
ssg1956
(dp5542
g89
I5
sNI2
sg19
I1
sg340
I2
ssg2565
(dp5543
g735
I1
ssS'big'
p5544
(dp5545
g4274
I4
ssg4405
(dp5546
g1707
I1
ssg2495
(dp5547
g60
I1
sg340
I1
ssg4727
(dp5548
g23
I1
ssg2003
(dp5549
g89
I2
sg86
I1
sg960
I1
sg23
I1
ssg4909
(dp5550
g1363
I1
ssg4747
(dp5551
g60
I2
sg3306
I1
sg15
I1
sg23
I1
ssg3798
(dp5552
g422
I5
ssg4083
(dp5553
S'declarations'
p5554
I1
ssg2006
(dp5555
g45
I1
ssS'alliances,'
p5556
(dp5557
g60
I1
ssg4192
(dp5558
g924
I1
ssg3280
(dp5559
NI5
ssg4798
(dp5560
NI1
ssg1577
(dp5561
g3806
I1
sS'deceived'
p5562
I1
sg3352
I1
ssg1450
(dp5563
g407
I1
sg1755
I1
sg581
I1
sg90
I1
sg26
I1
sg134
I1
sg3488
I1
sNI1
sg55
I1
sg4620
I1
ssS'signal'
p5564
(dp5565
g243
I1
ssS'commanders'
p5566
(dp5567
g89
I1
ssg4594
(dp5568
g26
I1
ssg3198
(dp5569
g45
I1
ssg1454
(dp5570
g1122
I1
sg23
I8
sNI1
sg151
I1
ssg4867
(dp5571
g45
I1
ssg4935
(dp5572
g1267
I1
ssg4277
(dp5573
g1000
I1
ssS'subverted'
p5574
(dp5575
g434
I1
sg752
I1
ssg4021
(dp5576
g89
I2
sg886
I1
ssg3193
(dp5577
g162
I1
ssg3560
(dp5578
g23
I1
ssg5334
(dp5579
g1753
I1
ssg4418
(dp5580
NI1
ssg223
(dp5581
g2076
I4
sS'chose'
p5582
I1
sg2637
I1
sg89
I2
sg640
I1
sg912
I1
sg2091
I1
sg2988
I1
sg1301
I1
sg1962
I1
sg296
I3
sg3192
I2
sg1022
I1
sg1944
I1
sg4018
I1
sg1099
I1
ssg4932
(dp5583
g243
I1
sg2326
I1
sg42
I1
ssg3393
(dp5584
g599
I1
ssg618
(dp5585
g1919
I2
sg434
I1
sg2893
I1
sg3819
I1
ssS'strongest'
p5586
(dp5587
NI1
ssg680
(dp5588
NI1
ssg3394
(dp5589
g151
I1
ssg2981
(dp5590
g2800
I1
sg23
I1
sNI1
ssg1432
(dp5591
g45
I1
sg4627
I1
ssg4295
(dp5592
g2381
I1
ssg3324
(dp5593
NI1
ssg2288
(dp5594
g60
I1
sg136
I1
ssg3211
(dp5595
g26
I1
ssg4297
(dp5596
g243
I1
sNI1
ssg2106
(dp5597
g45
I4
sS'20th,'
p5598
I4
ssg5127
(dp5599
S'center,'
p5600
I1
ssS'per'
p5601
(dp5602
g2505
I1
ssS'civilization'
p5603
(dp5604
g60
I1
sNI1
ssg4626
(dp5605
g257
I1
sg45
I3
ssS'prosecuted'
p5606
(dp5607
NI1
ssg3570
(dp5608
g23
I1
sNI1
ssg2953
(dp5609
NI1
ssg331
(dp5610
g4477
I1
sg4735
I3
sS'effective,'
p5611
I1
sg353
I1
sS'unfairly'
p5612
I1
sS'diminished'
p5613
I1
sg1434
I1
sg912
I1
sg243
I10
sg624
I3
sg1573
I1
sg5402
I1
sg571
I2
sg4981
I1
sS'hugged'
p5614
I1
sg4170
I3
sg42
I5
sS'enforced'
p5615
I2
sg5382
I3
sg133
I6
sS'pursued'
p5616
I1
sg612
I3
sg2303
I1
sg1721
I8
sg45
I1
sg749
I1
sg789
I1
sg61
I1
sg4165
I1
sg3417
I1
sg1774
I1
sS'irrelevant?'
p5617
I1
sg1580
I1
sS'subliminable'
p5618
I4
sg757
I1
sg362
I3
sg4845
I1
sg1533
I1
sg3850
I1
sg886
I3
sS'eager,'
p5619
I1
sg2766
I1
sg26
I1
sg3795
I2
sg5369
I1
sg5170
I1
sg293
I1
sg312
I1
sg1498
I1
sS'completely'
p5620
I1
sg1203
I1
sg958
I1
sg870
I1
sg2400
I1
sg456
I3
sg2432
I1
sg292
I2
sS'concerned'
p5621
I1
sg2115
I1
sg4502
I1
sg132
I1
sg2519
I1
sg3160
I1
sg1768
I4
sg5504
I1
sS'limits'
p5622
I1
sg2254
I1
sS'powered'
p5623
I1
sg1738
I1
sg356
I1
sS'fulfilled'
p5624
I1
sg5606
I1
sg2871
I1
sS'crossed'
p5625
I1
sg761
I1
sg4564
I1
sg583
I2
sg1958
I1
sg5086
I1
sg219
I2
sg1581
I1
sg4216
I1
ssg3424
(dp5626
g60
I1
sNI1
ssg2407
(dp5627
g397
I1
ssg1436
(dp5628
g45
I1
ssg2034
(dp5629
NI1
ssg1727
(dp5630
g23
I1
ssg3404
(dp5631
NI1
ssg4683
(dp5632
NI1
ssg115
(dp5633
g60
I1
sS'forward'
p5634
I1
sg45
I1
sg1707
I1
sg675
I1
ssS'concealed'
p5635
(dp5636
g960
I1
ssg4787
(dp5637
g45
I1
ssg752
(dp5638
g60
I1
sg322
I1
sg1047
I1
sg962
I1
sg1682
I1
sS'one,'
p5639
I1
sS'persistent'
p5640
I1
sg575
I1
sg2616
I1
sg1685
I1
sg3004
I1
sg261
I1
sNI1
sg599
I3
sg3922
I1
sS'thugs'
p5641
I1
sg684
I1
sg79
I2
sg5258
I1
sg3088
I1
sS'choice,'
p5642
I1
sg531
I1
sg1532
I1
sg3435
I1
sS'heritage'
p5643
I1
sg2320
I1
sS'uniting'
p5644
I1
sg243
I3
sg269
I2
sg372
I3
sg91
I1
sg3474
I1
sg15
I1
sg1123
I2
sg4702
I1
sg2746
I1
sg434
I1
sg1112
I1
sg5049
I1
sg527
I1
sg865
I1
sg151
I2
sg69
I1
sg2453
I1
sg1729
I1
sg45
I13
sg1736
I1
ssg4046
(dp5645
g23
I1
sg26
I1
ssg1341
(dp5646
g89
I1
sg86
I2
sg348
I1
sNI2
sg42
I1
ssg2308
(dp5647
g89
I1
ssg1160
(dp5648
g605
I1
sNI1
ssg2966
(dp5649
g1514
I4
ssS'firing'
p5650
(dp5651
g89
I1
ssg1117
(dp5652
g89
I1
ssg763
(dp5653
g60
I1
sg89
I1
ssg1651
(dp5654
g960
I1
ssS'miracles'
p5655
(dp5656
g42
I1
ssg4066
(dp5657
g45
I1
ssS'12,000'
p5658
(dp5659
g243
I1
ssg1680
(dp5660
g42
I3
ssg1263
(dp5661
g60
I3
sS'escaped'
p5662
I1
sg296
I1
sg132
I1
sg738
I2
sg2823
I1
sg407
I1
sg340
I3
sg517
I1
sg3042
I1
sg1023
I1
sNI3
ssg3343
(dp5663
g434
I1
sg2682
I1
sS'buildings'
p5664
I1
sg3027
I1
sg45
I1
ssg212
(dp5665
g243
I1
sg269
I3
sS'48'
p5666
I1
sg372
I1
sg533
I1
sg45
I1
sg70
I1
ssg4939
(dp5667
g60
I1
ssg5339
(dp5668
NI1
ssg2011
(dp5669
g2052
I1
ssg1926
(dp5670
g3443
I1
sg2351
I1
sg2032
I1
sg162
I1
sg2505
I1
sg4270
I1
sg1563
I1
sg4922
I1
ssg2526
(dp5671
g160
I1
ssg3580
(dp5672
g89
I1
ssg4292
(dp5673
g3882
I1
ssg1013
(dp5674
g634
I1
sg4057
I1
sNI1
ssg4941
(dp5675
S'minutes'
p5676
I1
ssg2637
(dp5677
g5522
I1
sg1673
I1
sg752
I1
sg1019
I1
ssg1350
(dp5678
g372
I1
ssg3510
(dp5679
g348
I1
ssS'bioterrorism,'
p5680
(dp5681
S'called'
p5682
I1
ssg3584
(dp5683
g42
I1
ssg5102
(dp5684
g4361
I1
sg2728
I1
sg1693
I3
sg2311
I1
sg1690
I1
sg359
I1
sg5621
I1
ssg5643
(dp5685
g60
I1
ssg5634
(dp5686
g19
I1
sg31
I1
ssg3586
(dp5687
g322
I1
sg2864
I1
ssg2668
(dp5688
g2666
I1
ssg562
(dp5689
g4162
I1
ssg3300
(dp5690
g85
I1
ssS'himself'
p5691
(dp5692
g3245
I1
sNI1
ssg4367
(dp5693
g434
I1
ssg3589
(dp5694
g2658
I1
ssg4328
(dp5695
g85
I1
ssg2987
(dp5696
g60
I2
ssg2073
(dp5697
g1251
I1
ssg2074
(dp5698
g89
I3
sg45
I1
ssg2302
(dp5699
g31
I1
sg171
I1
sg620
I1
ssg5116
(dp5700
g1715
I1
ssg4133
(dp5701
g23
I1
ssg5422
(dp5702
g219
I1
ssg4502
(dp5703
S'logistics'
p5704
I1
sg1532
I1
sNI1
sg903
I1
sg41
I1
ssg4646
(dp5705
g219
I1
ssS'fissile'
p5706
(dp5707
g1789
I1
ssg5554
(dp5708
g60
I1
ssS"hasn't"
p5709
(dp5710
g1236
I1
ssg735
(dp5711
g132
I2
sg960
I1
sg171
I4
sS'again,'
p5712
I1
sg26
I1
sg738
I1
sg2750
I1
sS'vs'
p5713
I1
sg340
I3
sg616
I1
sg42
I1
sg487
I1
sNI6
sg3343
I1
sg23
I4
ssg3594
(dp5714
g361
I3
ssg934
(dp5715
g60
I1
sg85
I1
ssg4660
(dp5716
g930
I1
ssg5682
(dp5717
g1124
I1
sg132
I2
sg23
I1
ssS'side,'
p5718
(dp5719
g60
I1
ssg1530
(dp5720
g119
I1
sg45
I1
sg269
I1
sg26
I1
ssg4488
(dp5721
g359
I1
ssS'300,000'
p5722
(dp5723
g582
I1
ssg3506
(dp5724
g5121
I1
ssg5676
(dp5725
g23
I1
ssg3598
(dp5726
g582
I1
ssg832
(dp5727
g45
I1
sg26
I2
ssg4090
(dp5728
g26
I1
ssg3210
(dp5729
g31
I1
ssg4947
(dp5730
g3465
I1
sg119
I1
sg1967
I1
sg5532
I1
sg3411
I1
ssg4185
(dp5731
NI1
sg906
I1
ssS'prevail'
p5732
(dp5733
NI3
ssg3957
(dp5734
g151
I1
ssS'journalists'
p5735
(dp5736
g60
I1
ssg5641
(dp5737
g60
I1
ssg584
(dp5738
g60
I5
sg85
I1
sg960
I1
sg31
I1
sg89
I4
sNI9
sg42
I1
sg1121
I1
sg23
I1
sg24
I1
sg1251
I1
sg96
I1
sg19
I2
sg477
I1
ssg793
(dp5739
g243
I1
sg960
I1
sS'enrichment'
p5740
I1
sg31
I4
ssg4131
(dp5741
g960
I1
ssg4094
(dp5742
g2753
I1
ssg5299
(dp5743
g86
I1
ssg5619
(dp5744
g23
I1
ssg2098
(dp5745
g89
I1
sg86
I1
sg553
I1
sg5492
I2
ssg2002
(dp5746
g89
I3
ssg4658
(dp5747
g45
I1
ssg5179
(dp5748
g60
I2
sg4876
I1
ssg2105
(dp5749
g89
I1
ssg2127
(dp5750
g60
I1
ssg1292
(dp5751
g407
I1
sg89
I2
sg23
I1
ssg417
(dp5752
g2573
I1
ssS'prepared'
p5753
(dp5754
g23
I1
sg583
I1
ssg1122
(dp5755
g23
I1
sg581
I1
sg1969
I1
ssg4158
(dp5756
g1123
I1
ssg3188
(dp5757
g23
I1
sg950
I1
sg1707
I1
ssg2568
(dp5758
g1274
I1
sg19
I2
ssS'restrained'
p5759
(dp5760
g4620
I1
ssg259
(dp5761
g31
I1
ssg114
(dp5762
NI1
sg1294
I1
ssg3723
(dp5763
g456
I1
ssg5027
(dp5764
g60
I1
ssg2084
(dp5765
g89
I1
sg2351
I1
sg24
I1
sg42
I1
ssg312
(dp5766
g23
I2
sg752
I2
sg31
I1
sg340
I1
ssg2558
(dp5767
g348
I1
ssg3576
(dp5768
g223
I1
ssg3511
(dp5769
g331
I1
ssg2298
(dp5770
g60
I1
ssg2068
(dp5771
g1948
I1
ssg1121
(dp5772
g322
I1
sg1703
I1
sg55
I1
sg26
I1
ssg5740
(dp5773
g3728
I1
ssg2561
(dp5774
g45
I1
sg1530
I1
sS'again,'
p5775
I2
ssg4579
(dp5776
g257
I1
ssg1867
(dp5777
g132
I4
ssg1438
(dp5778
g5634
I1
sg4510
I1
sg2916
I1
sg4932
I1
ssg3062
(dp5779
g42
I1
ssg1869
(dp5780
S"we've"
p5781
I1
sg86
I1
ssg3583
(dp5782
g60
I1
sNI1
ssg4106
(dp5783
g37
I1
ssg1525
(dp5784
g1956
I1
ssg5621
(dp5785
g487
I1
sg26
I1
ssg2703
(dp5786
g245
I1
ssS'send'
p5787
(dp5788
g45
I1
sg583
I2
ssg195
(dp5789
S'flagrant'
p5790
I1
ssg1302
(dp5791
g359
I4
sg5655
I1
sg55
I1
ssg3387
(dp5792
g590
I1
ssg12
(dp5793
g60
I1
ssS'breach'
p5794
(dp5795
g89
I1
ssg822
(dp5796
g243
I1
sg108
I1
ssg2814
(dp5797
g4325
I1
ssg1876
(dp5798
g89
I1
sNI1
ssg5355
(dp5799
g85
I1
ssg5600
(dp5800
g23
I1
ssg4047
(dp5801
g243
I1
ssg1463
(dp5802
g3516
I1
ssg2137
(dp5803
S'dictators,'
p5804
I1
sg1982
I1
ssg1879
(dp5805
S'chambers'
p5806
I2
sNI1
sg752
I1
ssS'organizations'
p5807
(dp5808
g23
I1
sg26
I1
ssS'riceking?'
p5809
(dp5810
NI1
ssg2567
(dp5811
g23
I5
ssg2569
(dp5812
g4233
I5
sNI1
ssg1150
(dp5813
g735
I1
ssg2054
(dp5814
g60
I1
sg89
I1
sNI2
ssg218
(dp5815
g683
I1
ssg3481
(dp5816
g29
I1
sg5365
I1
ssg4074
(dp5817
g85
I2
ssg1885
(dp5818
g200
I1
ssg5386
(dp5819
g683
I1
ssg2674
(dp5820
g60
I1
sg926
I1
ssg2969
(dp5821
g1263
I1
sg133
I1
ssg2837
(dp5822
g132
I1
ssg3484
(dp5823
g5391
I1
ssS'underscores'
p5824
(dp5825
g45
I1
ssg2265
(dp5826
g2717
I1
ssg5017
(dp5827
g23
I1
ssS'dealt'
p5828
(dp5829
g19
I1
ssg2511
(dp5830
g960
I1
ssg3780
(dp5831
g3728
I1
ssg1437
(dp5832
g45
I2
sg69
I1
sg26
I1
ssg909
(dp5833
g40
I1
ssg5704
(dp5834
g60
I1
ssS'2001laura'
p5835
(dp5836
g60
I1
ssg2062
(dp5837
g2015
I1
ssg4763
(dp5838
g46
I1
ssg4553
(dp5839
S'body'
p5840
I1
ssg2745
(dp5841
S'bigacy'
p5842
I1
ssg2164
(dp5843
g45
I2
ssg3721
(dp5844
NI1
sg25
I1
ssg1672
(dp5845
g60
I1
ssS'acid'
p5846
(dp5847
g132
I1
ssg2506
(dp5848
g85
I1
ssg3079
(dp5849
g2537
I1
ssg2112
(dp5850
S'controls'
p5851
I1
ssg552
(dp5852
g4597
I1
sg85
I1
sS'growth'
p5853
I3
sNI1
ssg1901
(dp5854
g89
I2
ssg1168
(dp5855
NI1
ssg2333
(dp5856
g3591
I1
ssg1430
(dp5857
g45
I1
ssS'networks'
p5858
(dp5859
g340
I1
ssg2823
(dp5860
g23
I4
ssg3074
(dp5861
S'data,'
p5862
I1
ssg3494
(dp5863
g69
I1
ssg1456
(dp5864
g251
I1
ssg5840
(dp5865
g23
I1
ssg5582
(dp5866
g23
I1
ssg2514
(dp5867
g60
I1
ssg5338
(dp5868
g752
I1
ssg4098
(dp5869
g243
I1
ssS'supervision,'
p5870
(dp5871
g322
I1
ssg4193
(dp5872
g26
I1
ssS'poverty'
p5873
(dp5874
g60
I1
ssg1910
(dp5875
g3319
I1
ssg5332
(dp5876
g1980
I1
ssg3195
(dp5877
g23
I3
ssg1071
(dp5878
g100
I1
sNI1
sg26
I1
sS'strategic'
p5879
I1
sg5556
I1
sg3044
I1
sg3607
I1
sg391
I1
sg2080
I1
sg5603
I1
sg5129
I1
sS'nations,'
p5880
I1
sg3783
I1
ssg3499
(dp5881
NI1
ssg1733
(dp5882
g60
I1
ssg3342
(dp5883
g5377
I1
sg45
I1
sg1167
I1
sg325
I1
ssg3777
(dp5884
g474
I1
ssg3433
(dp5885
g1327
I1
ssg1758
(dp5886
g434
I1
sg19
I1
sg3421
I2
ssg4631
(dp5887
g894
I4
ssg1677
(dp5888
g960
I1
ssg4304
(dp5889
g279
I1
sg738
I1
sNI4
ssg1966
(dp5890
g89
I1
ssS'proof'
p5891
(dp5892
g45
I1
ssg4370
(dp5893
g86
I1
sNI1
ssg4119
(dp5894
g60
I1
ssS'terrorizing'
p5895
(dp5896
g269
I1
ssg100
(dp5897
g60
I1
sg23
I1
sg407
I1
sg42
I1
sg2500
I1
sg86
I3
sNI4
sg752
I1
ssg1682
(dp5898
g19
I2
ssg3553
(dp5899
g995
I1
ssg4714
(dp5900
g86
I1
ssg3230
(dp5901
g1254
I1
ssg4638
(dp5902
g45
I2
sg4320
I1
ssg71
(dp5903
g407
I1
sg23
I1
sg3659
I1
sg340
I2
sg171
I1
sg42
I1
sg89
I2
sg3997
I1
sNI5
sg669
I1
ssg3175
(dp5904
g85
I1
ssg1610
(dp5905
NI1
ssS'confidence'
p5906
(dp5907
g42
I1
ssg960
(dp5908
g4537
I1
sg243
I4
sg1965
I1
sg5658
I1
sS'1,178'
p5909
I1
sg251
I2
sg100
I1
sg4511
I1
sg2195
I1
sS'sorrow'
p5910
I1
sg3238
I1
sg1201
I1
sg1563
I1
sg1473
I1
sg269
I1
sg2400
I1
sg372
I1
sg15
I4
sg950
I1
sg1217
I1
sg2227
I1
sg1942
I1
sg2463
I1
sg5895
I1
sg1310
I1
sg434
I3
sg910
I1
sg4075
I1
sg5185
I1
sS'now,'
p5911
I1
sg26
I1
sg2097
I1
sg3319
I1
sS'aids,'
p5912
I1
sg1382
I2
sS'inspectors,'
p5913
I1
sg45
I12
sg5183
I1
sg599
I2
sg4569
I4
ssg1924
(dp5914
g2040
I1
ssg4929
(dp5915
g1928
I1
ssg1947
(dp5916
g89
I1
sg45
I1
ssg3635
(dp5917
g252
I1
sg1378
I1
sg1961
I1
sg257
I1
ssg3049
(dp5918
S'warfare'
p5919
I1
ssg664
(dp5920
g18
I2
ssg4082
(dp5921
g599
I1
ssg956
(dp5922
g605
I1
sg26
I1
ssg2065
(dp5923
g3112
I1
ssg3333
(dp5924
g2808
I1
ssg1023
(dp5925
NI2
ssg4132
(dp5926
g5574
I1
ssg1533
(dp5927
g60
I1
sg431
I1
ssg5023
(dp5928
g31
I1
ssg1935
(dp5929
NI1
ssg1703
(dp5930
g531
I1
sg15
I1
sNI2
ssg5077
(dp5931
g501
I1
ssg541
(dp5932
S'distinguished'
p5933
I1
ssS'responsibilities,'
p5934
(dp5935
g778
I1
sg96
I1
ssg1335
(dp5936
g60
I2
sg89
I2
sg182
I2
sg23
I1
ssg1715
(dp5937
g4544
I1
sg5151
I3
sg5426
I1
sg969
I1
ssg4369
(dp5938
NI2
sg24
I1
sg31
I3
ssg1888
(dp5939
g60
I1
sg132
I1
sg23
I1
sg246
I1
sNI1
sg431
I1
ssg434
(dp5940
g60
I1
sg375
I3
sg100
I4
sg86
I20
sg2672
I1
sg553
I1
sg1100
I1
sS'war,'
p5941
I1
sg5275
I1
sg2054
I1
sg2505
I2
sg1278
I1
sg3350
I1
sg38
I1
sg800
I1
sg220
I3
sg1127
I1
sg4185
I1
sg2878
I1
sS'conflict,'
p5942
I1
sg1957
I1
sS'nation,'
p5943
I1
sg1958
I1
sg5261
I1
sg432
I1
sg120
I1
sg1797
I1
sg247
I1
sg348
I1
sg1887
I5
sS'goal,'
p5944
I1
sg349
I1
sg1960
I1
sg2104
I1
sg250
I1
sg2494
I1
sg1444
I3
sg2202
I1
sg725
I2
sg2421
I1
sg103
I7
sS'year,'
p5945
I4
sg1739
I1
sg1866
I1
sg200
I1
sg2635
I1
sg3512
I1
sg243
I1
sg2076
I3
sg835
I1
sg1640
I1
sS'danger,'
p5946
I1
sg40
I1
sg492
I1
sg2958
I3
sg3398
I1
sg3255
I1
sg407
I2
sg4207
I1
sS'struggle,'
p5947
I1
sg4358
I1
sg1972
I1
sg1040
I6
sg246
I4
sg694
I1
sg964
I4
sg263
I1
sS"regime's"
p5948
I1
ssg5324
(dp5949
g23
I1
sNI1
ssg731
(dp5950
g60
I1
sg85
I2
sg752
I1
sg162
I1
ssg5625
(dp5951
NI1
ssS'praise'
p5952
(dp5953
g162
I1
ssg4666
(dp5954
g151
I1
sg599
I1
ssg2300
(dp5955
S'women,'
p5956
I1
ssg3516
(dp5957
g60
I1
sg89
I2
sg374
I1
ssg5128
(dp5958
g212
I1
ssg797
(dp5959
g23
I2
ssg4946
(dp5960
g55
I1
ssg3080
(dp5961
g85
I1
ssg553
(dp5962
g243
I1
sg5269
I1
sg2206
I3
sg1247
I1
sg45
I1
sg900
I3
sg55
I1
sg2660
I1
ssg4997
(dp5963
g5846
I1
ssg5662
(dp5964
g960
I1
ssg2050
(dp5965
g89
I1
ssg869
(dp5966
NI1
ssg4789
(dp5967
g25
I1
ssg5364
(dp5968
g5246
I1
ssg3389
(dp5969
g4890
I1
ssg5300
(dp5970
g31
I2
ssg3531
(dp5971
g372
I1
ssg287
(dp5972
g23
I1
sg187
I1
sg960
I1
sNI1
ssg4009
(dp5973
g683
I3
ssg1954
(dp5974
g2716
I35
sg2235
I1
sg5278
I1
sS'nations,'
p5975
I6
sg965
I21
ssg3527
(dp5976
NI1
ssg3539
(dp5977
g322
I1
ssg3405
(dp5978
g85
I1
sg1977
I1
ssg4337
(dp5979
g23
I1
ssg3528
(dp5980
g251
I1
sg571
I1
ssg4092
(dp5981
g45
I1
sS'calling'
p5982
I1
ssg894
(dp5983
g605
I4
sg19
I4
sg431
I4
ssS'responsibilities'
p5984
(dp5985
g187
I1
sNI1
sg340
I1
ssg5165
(dp5986
NI1
ssg2472
(dp5987
g89
I5
sg1532
I1
sS'utter'
p5988
I1
ssg4442
(dp5989
g60
I1
ssg4428
(dp5990
g60
I1
ssg3476
(dp5991
g2896
I1
ssg4339
(dp5992
g583
I1
ssg5664
(dp5993
g671
I1
ssg4202
(dp5994
g151
I1
sNI1
sg41
I1
ssg4097
(dp5995
S'rouge,'
p5996
I1
ssg497
(dp5997
g23
I1
sg171
I1
sg42
I1
sg434
I1
sg89
I1
sg19
I3
sg446
I1
sg41
I1
sg290
I1
ssg3536
(dp5998
g1228
I1
ssS'ethnic'
p5999
(dp6000
g60
I1
ssS'courage,'
p6001
(dp6002
g85
I1
ssg3537
(dp6003
g45
I1
ssg2752
(dp6004
g23
I1
sg990
I1
ssg1970
(dp6005
NI1
ssg5947
(dp6006
g60
I1
ssg496
(dp6007
g4713
I1
sg45
I1
sg571
I1
sg26
I1
sg1263
I1
ssg1740
(dp6008
g434
I1
sg23
I1
sS'crowds'
p6009
I1
ssg266
(dp6010
g27
I1
ssg3126
(dp6011
g31
I1
ssg3431
(dp6012
g20
I1
ssg3544
(dp6013
g119
I1
ssg2583
(dp6014
g42
I1
ssg479
(dp6015
g1074
I1
sg525
I1
ssg500
(dp6016
g5691
I1
sS'iraq,'
p6017
I1
sg89
I1
sg45
I2
sNI5
sg778
I1
sg4620
I2
ssg814
(dp6018
NI1
ssg1116
(dp6019
g718
I1
sg2620
I2
sg219
I1
ssg5614
(dp6020
g752
I1
ssg551
(dp6021
g4968
I1
sg98
I1
sg4388
I1
sg2494
I1
sg1978
I1
sg253
I1
sg962
I3
sg799
I1
sg5131
I1
sS'demise'
p6022
I1
sg9
I1
sg35
I1
sNI4
sg2286
I1
sS'destiny'
p6023
I1
sS'people,'
p6024
I1
sg964
I3
sg640
I1
sg4806
I1
sg1605
I1
sg4571
I1
sg2829
I1
ssg397
(dp6025
g3443
I1
sg2207
I1
sg5179
I1
sg70
I1
sg1563
I1
sg571
I1
sg3434
I1
sg1882
I1
sg1051
I1
sg45
I2
sg863
I1
sg5735
I1
ssg1982
(dp6026
g407
I1
sg348
I1
sg182
I1
ssg217
(dp6027
g4327
I1
ssg3833
(dp6028
g5218
I1
ssg1266
(dp6029
g23
I1
sg42
I1
ssS'myself,'
p6030
(dp6031
g60
I3
sg322
I3
sg1753
I1
ssS'1'
p6032
(dp6033
NI1
ssg4923
(dp6034
g4107
I1
ssg1987
(dp6035
g434
I1
ssS'chosen'
p6036
(dp6037
g23
I2
ssS'ships'
p6038
(dp6039
g42
I1
ssg4286
(dp6040
g89
I1
ssg1962
(dp6041
g60
I1
sg614
I1
sg1051
I1
sg514
I1
ssg748
(dp6042
g1902
I1
ssg2939
(dp6043
g4971
I1
ssg3453
(dp6044
g19
I1
sg1194
I1
ssg3513
(dp6045
g1963
I1
ssg4287
(dp6046
g37
I1
ssS'world,'
p6047
(dp6048
g60
I2
sg45
I1
sg85
I2
sg359
I1
sg86
I1
sg55
I1
sg37
I1
ssg549
(dp6049
NI2
ssg3396
(dp6050
g60
I1
ssg1996
(dp6051
g60
I1
sg89
I1
sNI1
ssg4651
(dp6052
g374
I1
sS'airplanes'
p6053
I1
ssg5617
(dp6054
NI1
ssg3552
(dp6055
g531
I1
ssg1998
(dp6056
g89
I1
ssg812
(dp6057
g89
I1
sNI1
ssg4866
(dp6058
g19
I1
ssg3474
(dp6059
g3106
I1
sg1551
I1
ssg3877
(dp6060
g296
I4
ssg4080
(dp6061
g89
I1
ssg4081
(dp6062
g26
I1
ssg2828
(dp6063
g1632
I1
ssS'fled'
p6064
(dp6065
g2463
I1
ssS'presidential'
p6066
(dp6067
g4140
I1
ssg1459
(dp6068
g31
I2
ssg4271
(dp6069
g45
I1
ssg5199
(dp6070
g60
I1
ssg1649
(dp6071
g23
I1
ssg5241
(dp6072
g4297
I1
ssg3883
(dp6073
g245
I1
ssg2499
(dp6074
g85
I1
ssg4616
(dp6075
g60
I1
ssg2147
(dp6076
NI1
sg19
I1
ssg4583
(dp6077
g19
I1
ssg5391
(dp6078
g4647
I1
sg397
I1
ssg4159
(dp6079
g45
I1
ssg2502
(dp6080
g60
I1
sg2823
I1
sg1019
I1
sNI1
sg2410
I1
ssg3423
(dp6081
g3958
I1
ssg3579
(dp6082
g372
I1
sg151
I1
ssg336
(dp6083
g2648
I1
sg34
I1
sg76
I1
ssg1579
(dp6084
g151
I1
sg5433
I4
sg778
I1
sg45
I1
sg42
I1
ssg2014
(dp6085
g89
I1
ssg4576
(dp6086
g3390
I1
ssg4621
(dp6087
g2443
I1
ssg3924
(dp6088
g243
I1
sNI1
ssg3485
(dp6089
g243
I1
sg431
I1
ssS'changed'
p6090
(dp6091
g45
I1
sg70
I3
ssg372
(dp6092
S'army,'
p6093
I1
sg3084
I1
sg551
I3
sS'resolve,'
p6094
I1
sg2431
I2
sg2883
I1
sg2429
I1
sg71
I1
sg2286
I7
sS'nation,'
p6095
I1
sg5906
I1
sg1561
I1
sg1874
I2
sS'military,'
p6096
I1
sg1382
I3
sg5013
I1
sg444
I1
sg1545
I1
sg4176
I1
sS'interests'
p6097
I1
sg592
I1
sg1932
I2
sS'views'
p6098
I4
sg2494
I4
sg241
I1
sg103
I19
sg1605
I1
sg200
I2
sg5934
I1
sg4930
I3
sg1634
I1
sS'airports,'
p6099
I1
sg1886
I2
sg3398
I2
sS'country,'
p6100
I7
sg1647
I1
sg2078
I1
sg1656
I3
sg5952
I1
sg2040
I1
sg4468
I1
sg1123
I3
sS'actions,'
p6101
I1
sg5718
I1
sg962
I4
sg5202
I4
sS'partnership'
p6102
I1
sg553
I1
sg881
I1
sg560
I2
sg618
I1
sg198
I1
sS'freedom,'
p6103
I1
sS'choosing'
p6104
I1
sg5982
I1
sg2019
I4
sg343
I1
sg201
I1
sg1964
I1
sg1956
I1
sS'time,'
p6105
I1
sg5984
I2
sg2289
I1
sg3024
I1
sg1975
I1
sg1039
I1
sg4627
I1
sg1960
I4
sg1186
I2
sg251
I3
sg5371
I1
sg1292
I1
sg2108
I2
sg2206
I1
sg6001
I1
sg3498
I1
sS'friends'
p6106
I6
sg1341
I2
sg3575
I5
sg3447
I1
sS'people,'
p6107
I1
sg964
I8
sg2084
I1
sg640
I3
sg1000
I1
sg20
I1
sg743
I1
sS'security,'
p6108
I1
sg1857
I1
sg725
I4
sg9
I1
sg2047
I1
ssg2175
(dp6109
g60
I1
ssS'witness'
p6110
(dp6111
g45
I1
ssg1551
(dp6112
g23
I1
sg282
I1
sg31
I2
sg89
I2
sg2773
I1
sg42
I1
sS'tongues,'
p6113
I1
sg219
I1
ssg4492
(dp6114
g2010
I1
ssg3567
(dp6115
g372
I3
sg45
I4
sg4365
I1
ssg2046
(dp6116
g23
I1
ssg4281
(dp6117
g60
I1
ssg4069
(dp6118
g2512
I1
sg85
I1
sg15
I1
sg776
I1
ssS'socalled'
p6119
(dp6120
g6066
I1
ssg2028
(dp6121
g60
I1
sg2353
I1
sg42
I1
ssg1039
(dp6122
g407
I1
sg89
I3
sg60
I1
ssg3572
(dp6123
g89
I1
ssg1118
(dp6124
g726
I1
ssg2516
(dp6125
g23
I2
ssg3573
(dp6126
g31
I1
ssg498
(dp6127
g431
I2
ssg5620
(dp6128
g1501
I1
ssg258
(dp6129
NI1
sS'times,'
p6130
I2
ssg93
(dp6131
g5999
I1
ssg5158
(dp6132
S'people,'
p6133
I1
ssS'met,'
p6134
(dp6135
g45
I1
ssg4324
(dp6136
g15
I1
ssg3575
(dp6137
g407
I2
sg24
I1
sg296
I1
sg738
I1
sNI2
sg1427
I1
sg340
I1
ssg4368
(dp6138
g571
I1
ssg738
(dp6139
g361
I1
sg331
I10
sg411
I1
sg2031
I1
sg4691
I1
sg946
I1
sg606
I1
sg3354
I1
sg3524
I1
sg418
I2
sg296
I2
sg496
I1
sg501
I1
sg4187
I1
sg2750
I2
sg359
I1
sg4666
I1
sg3936
I1
sg2848
I1
ssg5613
(dp6140
g45
I1
ssg20
(dp6141
g45
I2
sg26
I1
sNI2
sg722
I1
sg42
I2
ssg4582
(dp6142
g1468
I2
ssg4104
(dp6143
g60
I1
ssg2780
(dp6144
g60
I3
sg269
I1
sg1017
I1
sg1611
I1
sg86
I6
sg1259
I1
sg261
I1
sg1686
I1
sNI2
sg3967
I1
sg477
I1
sg1492
I1
sg487
I1
sg171
I2
sg418
I1
sg5616
I1
sg738
I2
sg3528
I1
sg1084
I6
sg276
I1
sg407
I1
sg23
I1
sg1302
I1
sg501
I1
sg246
I1
sg348
I12
ssg4309
(dp6145
g5179
I1
ssS'congresses,'
p6146
(dp6147
g23
I1
ssg3885
(dp6148
S'korea,'
p6149
I1
sg2195
I1
ssS'designed'
p6150
(dp6151
g23
I1
ssg5862
(dp6152
g571
I1
ssg4312
(dp6153
g1755
I1
ssS'anyone,'
p6154
(dp6155
g397
I1
ssS'economy,'
p6156
(dp6157
g60
I1
ssg4362
(dp6158
g60
I1
sg1534
I2
sg431
I1
sg5295
I1
ssg1745
(dp6159
g962
I1
ssg5879
(dp6160
g201
I1
ssg2052
(dp6161
NI2
ssg4663
(dp6162
g348
I1
ssg358
(dp6163
g6032
I1
sg26
I1
ssg4446
(dp6164
g23
I2
ssg3204
(dp6165
g45
I1
sg571
I1
ssg1717
(dp6166
g1159
I1
ssg2555
(dp6167
g5835
I1
sS'2001the'
p6168
I1
ssg348
(dp6169
g4477
I2
sg1024
I3
sg1530
I2
sg3123
I1
sg1526
I1
sg3806
I1
sg4005
I1
sg2470
I1
sg571
I1
sg1116
I2
sg4981
I1
sg2791
I1
sg288
I1
sg5574
I1
sg4170
I1
sS'said,'
p6170
I1
sg5289
I1
sg4235
I1
sg3122
I2
sg4756
I1
sg6036
I2
sg832
I1
sg276
I4
sg1215
I1
sg749
I5
sg4827
I1
sg1072
I1
sg2417
I2
sg932
I3
sg4171
I1
sg2182
I1
sg270
I1
sg3147
I1
sg4419
I1
sg886
I1
sg3697
I4
sS'come,'
p6171
I1
sg2998
I1
sg223
I1
sg285
I2
sg2624
I1
sg3262
I1
sg5753
I1
sg299
I1
sg1021
I2
sg359
I5
sS'thus'
p6172
I1
sg361
I2
sg5759
I1
sS'gassed'
p6173
I1
sg243
I4
sg418
I2
sg3160
I2
sg4168
I1
sg3555
I1
sg3574
I1
sg4843
I1
sg133
I4
sg3791
I1
sg77
I1
sg119
I1
sg533
I1
sg45
I1
sg431
I1
sg3739
I1
sg1767
I1
ssS'bears'
p6174
(dp6175
g671
I1
ssg3966
(dp6176
g3808
I1
ssS'assure'
p6177
(dp6178
S'you,'
p6179
I1
ssg2057
(dp6180
g60
I1
ssg3305
(dp6181
g89
I2
sg42
I1
sg1019
I1
sg26
I4
ssg5024
(dp6182
g19
I3
ssg4664
(dp6183
g3343
I1
sNI1
sg1707
I1
ssg678
(dp6184
g296
I1
ssg151
(dp6185
g6097
I1
sg551
I9
sg5539
I1
sg2219
I1
sg4878
I1
sg1865
I3
sg4048
I1
sg6156
I1
sg1940
I1
sg2108
I1
sg1889
I1
sg1575
I1
sg4775
I1
sg5508
I1
sg2579
I1
sg3815
I1
sg2286
I1
sg3345
I1
sg1071
I1
sS'power,'
p6186
I1
sg512
I1
sg1390
I1
sg1601
I2
sg492
I1
sg2596
I1
sS'country,'
p6187
I1
sg1545
I1
sg1902
I1
sg5984
I1
sg5530
I2
sg1876
I1
sg164
I1
sg9
I1
sS'aspirations'
p6188
I1
sg563
I1
sS'duties'
p6189
I1
ssg2968
(dp6190
g382
I1
sg322
I1
sg34
I1
sNI3
sg45
I1
ssg4641
(dp6191
g85
I1
ssg4396
(dp6192
g431
I1
ssg2462
(dp6193
NI1
ssg1695
(dp6194
g2233
I1
ssg6097
(dp6195
g60
I1
sNI1
ssg686
(dp6196
g3292
I1
sS'agencies'
p6197
I1
ssS'accompany'
p6198
(dp6199
g45
I1
ssg3550
(dp6200
g160
I1
ssg4790
(dp6201
g5706
I1
ssg352
(dp6202
g683
I3
sS'although'
p6203
I3
ssg2581
(dp6204
g2772
I1
ssS'scientists,'
p6205
(dp6206
g243
I1
sg1088
I1
ssg1859
(dp6207
g1883
I1
ssg4908
(dp6208
S'sanctions,'
p6209
I1
ssg1949
(dp6210
g89
I1
ssS'discretionary'
p6211
(dp6212
g2637
I1
ssg4389
(dp6213
S'ones'
p6214
I1
ssg5919
(dp6215
S'agents,'
p6216
I1
ssg3750
(dp6217
g359
I1
ssg3197
(dp6218
g960
I2
ssg3636
(dp6219
g4416
I1
ssg4134
(dp6220
NI1
sg42
I1
ssg3500
(dp6221
g4932
I1
ssg2582
(dp6222
g23
I3
sNI1
ssg3595
(dp6223
g3456
I1
ssg2483
(dp6224
g1841
I1
sg31
I1
ssg5933
(dp6225
g2944
I1
sg640
I1
ssg4648
(dp6226
g45
I1
ssg598
(dp6227
g89
I1
sg86
I1
sg45
I1
sg42
I1
ssg5615
(dp6228
g45
I1
sNI1
ssg2541
(dp6229
g531
I1
sg42
I1
ssg6102
(dp6230
g89
I1
ssg3599
(dp6231
g60
I2
ssg4951
(dp6232
g3034
I1
sg425
I1
ssg4715
(dp6233
NI1
sg5635
I1
ssg3965
(dp6234
g19
I1
ssg3600
(dp6235
g778
I1
ssg4310
(dp6236
g45
I1
sg1893
I1
ssg296
(dp6237
g4
I1
sg4502
I1
sg2362
I1
sg1024
I1
sg4878
I1
sg55
I3
sg571
I2
sg359
I1
sg2785
I1
sg288
I1
sg3248
I1
sg3107
I2
sg733
I2
sg2804
I1
sS'catalogued'
p6238
I1
sg1432
I1
sg953
I1
sg1289
I2
sg31
I1
sg133
I4
sg5616
I1
sg3697
I1
sg1263
I1
sg1084
I1
sg276
I12
sg2823
I1
sg23
I7
sg1072
I1
sg1027
I1
sg247
I1
sg4171
I1
sg270
I1
sg2196
I1
sg3183
I4
sg219
I1
sS'sworn,'
p6239
I1
sg4894
I1
sg5097
I1
sg26
I1
sg3688
I1
sg4709
I1
sg1498
I1
sg3160
I2
sg90
I1
sS'shaked?'
p6240
I1
sg486
I1
sg1630
I2
sg487
I2
sg37
I3
sg243
I12
sg1341
I1
sg3409
I1
sg5289
I1
sg1643
I1
sg683
I3
sg1848
I2
sg6090
I1
sg4951
I1
sg1512
I2
sg2653
I1
sg2179
I1
sg1394
I1
sg45
I9
sg5682
I1
sg976
I1
ssg5806
(dp6241
g60
I1
sg89
I1
ssg816
(dp6242
g23
I8
sg4884
I1
sg359
I3
sg205
I1
sNI4
sg86
I1
ssg2409
(dp6243
g621
I1
ssg4840
(dp6244
g243
I4
sg2726
I1
sg348
I1
ssS'documents'
p6245
(dp6246
g60
I1
ssg5616
(dp6247
g257
I1
sg60
I1
sg3424
I1
sS'chemical,'
p6248
I1
ssg4120
(dp6249
NI1
ssg4415
(dp6250
g451
I1
sg1781
I1
sg42
I1
ssg1721
(dp6251
g23
I9
ssg715
(dp6252
g257
I1
sg89
I1
sg960
I1
ssg3694
(dp6253
g3942
I1
ssg4841
(dp6254
NI4
ssg3253
(dp6255
g5266
I1
sg85
I1
sg3971
I1
sg340
I1
sg2259
I1
sg620
I1
sg45
I1
sg322
I1
sg86
I2
sg477
I1
ssg2100
(dp6256
g2423
I1
sg2494
I1
sS'peninsula,'
p6257
I1
sg800
I2
ssg1175
(dp6258
g322
I1
ssg5495
(dp6259
g257
I1
ssg4990
(dp6260
g45
I1
ssg295
(dp6261
g683
I8
sg23
I1
sS"i'm"
p6262
I1
sg2524
I1
sg42
I1
ssg2580
(dp6263
g31
I1
ssg5909
(dp6264
g23
I1
ssg4316
(dp6265
g347
I1
ssg182
(dp6266
g621
I1
sg581
I1
sg296
I4
sg3357
I1
sg2368
I1
sg86
I2
sg1089
I1
sg4614
I1
sg2568
I1
sg976
I1
sg90
I1
sg340
I1
sg162
I1
sg816
I2
sg32
I1
sg6064
I1
sS'died'
p6267
I1
sg4502
I1
sS"doesn't"
p6268
I3
sg2902
I1
sg171
I1
sg2969
I1
sg2119
I1
sg3567
I1
sg492
I4
sg1084
I1
sg5851
I1
sg407
I2
sg3342
I1
sg1507
I1
sg45
I1
sg348
I3
sg40
I1
sg277
I1
sg891
I1
ssg4213
(dp6269
g133
I1
ssg3059
(dp6270
g89
I1
ssg2402
(dp6271
g23
I1
sg6119
I1
ssg6022
(dp6272
g1444
I1
ssg1974
(dp6273
g26
I1
ssg3548
(dp6274
g60
I1
ssg49
(dp6275
g738
I1
sNI1
sg96
I1
ssg963
(dp6276
g904
I1
ssg3596
(dp6277
g3961
I1
ssg1451
(dp6278
g132
I1
sNI1
sg42
I1
ssg213
(dp6279
g60
I2
ssg5121
(dp6280
NI2
ssg2120
(dp6281
S'fearful'
p6282
I1
sg89
I1
ssS'1,000'
p6283
(dp6284
g219
I1
ssg6149
(dp6285
g1670
I1
ssg1582
(dp6286
g2495
I1
ssg2122
(dp6287
g5824
I1
sg26
I3
ssg4645
(dp6288
g45
I1
sg725
I1
ssg191
(dp6289
g89
I2
ssg4608
(dp6290
g45
I1
sg657
I2
ssg2566
(dp6291
g23
I3
sNI2
ssg557
(dp6292
g1539
I1
ssg5639
(dp6293
g45
I1
ssg3663
(dp6294
g407
I1
ssg6168
(dp6295
g4304
I1
ssg4279
(dp6296
g42
I1
ssS'mean,'
p6297
(dp6298
g2504
I1
ssg5988
(dp6299
g5300
I1
ssg1860
(dp6300
g60
I3
sg86
I1
sNI6
ssg4922
(dp6301
g89
I2
sNI1
sg23
I1
ssS'one?'
p6302
(dp6303
NI1
ssg108
(dp6304
S'heart'
p6305
I1
sg1958
I1
sg86
I1
sg1091
I1
sg2948
I1
sS'year,'
p6306
I1
sg105
I2
sg2505
I1
sg1665
I1
sNI4
sg752
I1
sg800
I1
sg244
I1
sg118
I2
sg89
I6
sg3982
I1
sg116
I2
sg603
I1
sg1793
I1
sg3218
I1
sg3319
I2
sg4601
I1
sg1102
I2
sg2775
I1
sg348
I1
sS'conclusion'
p6307
I1
ssg4861
(dp6308
g340
I1
ssS'inspiring'
p6309
(dp6310
g127
I1
ssg4662
(dp6311
g2204
I2
ssS'based'
p6312
(dp6313
g132
I1
ssg4844
(dp6314
NI4
ssg5851
(dp6315
g45
I2
ssg1019
(dp6316
g4222
I3
sg621
I1
sg531
I1
sg5787
I1
sg493
I1
sg418
I1
sg296
I2
sg359
I2
sg2848
I1
sg331
I3
sg15
I1
sg2019
I1
sg1079
I1
ssg4699
(dp6317
g4152
I1
sNI2
ssg1875
(dp6318
g89
I1
ssg2148
(dp6319
S'april'
p6320
I1
ssg718
(dp6321
g89
I8
sNI1
sg431
I1
ssg1383
(dp6322
g243
I2
sg5038
I1
ssg1816
(dp6323
g488
I1
ssg849
(dp6324
g23
I1
sg26
I1
sg55
I1
sg89
I1
ssg1442
(dp6325
g45
I3
ssS'sued'
p6326
(dp6327
NI1
ssg4613
(dp6328
g45
I3
ssg4938
(dp6329
g960
I1
ssS'hivaids'
p6330
(dp6331
g42
I1
ssg4075
(dp6332
g23
I1
sNI1
sg296
I1
ssg1699
(dp6333
NI1
ssg4614
(dp6334
g45
I2
ssg4927
(dp6335
g45
I4
ssg6214
(dp6336
g60
I1
ssg2364
(dp6337
g5514
I1
ssg3836
(dp6338
NI1
sg24
I1
ssg3526
(dp6339
NI2
sg5232
I1
ssS'areas'
p6340
(dp6341
NI1
ssg2141
(dp6342
g3967
I1
ssg1706
(dp6343
g2509
I1
ssg1980
(dp6344
g89
I3
sg525
I1
sNI1
sg431
I1
ssg3493
(dp6345
g60
I1
ssg3593
(dp6346
g4443
I1
ssg345
(dp6347
g6038
I1
ssg5492
(dp6348
g60
I2
sg4693
I1
ssg5982
(dp6349
g187
I1
sS"iraq's"
p6350
I1
ssg3566
(dp6351
g212
I1
ssg387
(dp6352
NI1
ssS'1441,'
p6353
(dp6354
g5228
I1
ssg1264
(dp6355
g60
I2
sg42
I1
ssg666
(dp6356
g89
I2
sNI1
sg290
I1
ssg5562
(dp6357
NI1
ssg3130
(dp6358
g89
I1
ssg1787
(dp6359
g692
I1
ssg3432
(dp6360
g1317
I1
ssg1894
(dp6361
g2039
I1
sS'fires'
p6362
I1
ssg253
(dp6363
g3891
I1
sg1123
I1
ssg4917
(dp6364
g89
I1
ssg4290
(dp6365
g85
I1
sg244
I1
ssg4086
(dp6366
g162
I1
ssg558
(dp6367
S"it's"
p6368
I1
ssg2704
(dp6369
g132
I1
sg4823
I1
sg6198
I1
ssg4536
(dp6370
g247
I1
ssg5612
(dp6371
g6326
I1
ssg2020
(dp6372
g60
I1
ssg608
(dp6373
g1228
I1
ssg4491
(dp6374
g2037
I1
sg3257
I1
ssg5996
(dp6375
S'louisiana'
p6376
I1
ssS'end,'
p6377
(dp6378
g60
I1
ssg272
(dp6379
g23
I1
sg45
I1
ssg1686
(dp6380
g243
I3
sg1005
I2
sg348
I1
sg42
I1
ssg6023
(dp6381
g60
I1
ssg2732
(dp6382
g60
I1
sNI1
sS'domestic'
p6383
I1
sg3253
I1
sg477
I1
ssg6188
(dp6384
g23
I1
ssg374
(dp6385
g6205
I2
sS'weapons,'
p6386
I2
sg448
I1
sg1390
I1
sg3020
I12
sg429
I1
sg3888
I1
sg257
I10
sS'terror,'
p6387
I1
sg1948
I4
sg124
I1
sg1975
I1
sS'mujahideen'
p6388
I1
sg4015
I1
sg346
I3
sg935
I1
ssg3490
(dp6389
g45
I1
ssg1905
(dp6390
g89
I1
sNI1
sS'powell'
p6391
I1
ssg4611
(dp6392
S"that's"
p6393
I1
ssg4444
(dp6394
g3599
I1
ssg2509
(dp6395
g89
I3
ssg1883
(dp6396
g60
I1
sg89
I1
sNI1
sg407
I1
ssg2510
(dp6397
g89
I1
sg45
I1
ssg1710
(dp6398
g76
I1
ssg4114
(dp6399
g60
I1
ssg341
(dp6400
g830
I1
ssg796
(dp6401
g23
I3
ssS'opening'
p6402
(dp6403
g3871
I1
ssg337
(dp6404
g23
I1
ssg5910
(dp6405
NI1
ssg4629
(dp6406
g45
I1
sg55
I1
ssg6197
(dp6407
g296
I1
ssg116
(dp6408
g23
I1
sg211
I1
sg285
I1
sg960
I1
sg5350
I1
sg509
I1
sg89
I4
sNI1
sg657
I1
sg37
I1
ssg1909
(dp6409
g89
I1
sg86
I7
sNI1
ssg2571
(dp6410
g243
I1
sg89
I1
ssg3878
(dp6411
g5566
I1
sg2091
I1
ssg3875
(dp6412
g60
I1
ssg6388
(dp6413
g269
I1
ssS'lawsuit'
p6414
(dp6415
NI1
ssS'taken,'
p6416
(dp6417
g55
I1
ssg5622
(dp6418
g23
I1
ssg4371
(dp6419
g5321
I1
ssg1736
(dp6420
g134
I4
sg2783
I1
sS'unprecedented'
p6421
I1
ssg5489
(dp6422
g1102
I1
sg223
I1
ssg2544
(dp6423
g1740
I1
sg1167
I1
sg3846
I1
ssg3569
(dp6424
g89
I1
ssg5624
(dp6425
g42
I1
ssg6320
(dp6426
S'15,'
p6427
I1
ssg4632
(dp6428
g26
I1
ssg4769
(dp6429
g85
I1
ssg6305
(dp6430
g60
I1
ssg5031
(dp6431
g60
I1
ssg1785
(dp6432
g86
I1
sg5828
I1
ssg1412
(dp6433
g738
I1
sNI6
sg55
I1
sg31
I1
sg643
I1
ssg1097
(dp6434
g89
I1
ssg695
(dp6435
g60
I1
ssg2000
(dp6436
g89
I2
sNI1
sg620
I1
ssg2634
(dp6437
g60
I1
ssg68
(dp6438
g243
I1
ssg4327
(dp6439
g2075
I1
sg4015
I1
sg338
I1
ssg4315
(dp6440
g60
I3
ssg3504
(dp6441
g89
I1
sg31
I3
sg42
I1
ssg4656
(dp6442
g45
I1
sNI1
ssg4344
(dp6443
g26
I1
ssg5623
(dp6444
g752
I1
ssg4072
(dp6445
g23
I1
ssg5101
(dp6446
g243
I3
sg98
I4
sg2053
I1
sg1358
I1
sg4840
I4
sg223
I4
sg1159
I3
sg276
I1
sg108
I1
sg1693
I4
sg5293
I3
sg359
I6
sg932
I4
sg45
I1
sg76
I4
sg1739
I4
ssg5194
(dp6447
g85
I1
ssg4617
(dp6448
S'arrest'
p6449
I1
ssg4667
(dp6450
g434
I1
sg23
I1
sg85
I1
sg42
I1
ssg5642
(dp6451
g45
I1
ssg4928
(dp6452
g121
I4
ssg3180
(dp6453
g23
I2
ssg4318
(dp6454
g3755
I1
ssg2890
(dp6455
g24
I1
ssg126
(dp6456
g397
I1
ssg4321
(dp6457
g1753
I4
ssg6376
(dp6458
NI1
ssS"it'd"
p6459
(dp6460
g331
I4
ssg501
(dp6461
g151
I2
sg23
I1
sg1251
I1
sS'confrontation,'
p6462
I1
sNI1
sg45
I1
ssg6239
(dp6463
g752
I1
ssg1750
(dp6464
g3346
I1
ssS'controlled'
p6465
(dp6466
g752
I1
ssg4642
(dp6467
g6330
I1
ssg1755
(dp6468
g296
I1
sg70
I1
sg152
I2
sg1148
I3
sg372
I2
sg1686
I1
sNI2
sg4402
I1
sg238
I1
ssg1573
(dp6469
g23
I1
sg960
I1
ssg1854
(dp6470
g23
I2
sg5324
I1
ssg6053
(dp6471
g3343
I1
ssg1936
(dp6472
g3532
I4
ssg5093
(dp6473
g1127
I4
sg1161
I4
sg291
I3
ssg2535
(dp6474
S'..'
p6475
I1
ssg1939
(dp6476
g2761
I1
ssg571
(dp6477
g5196
I1
sg1812
I1
sg3562
I2
sg5166
I2
sg2278
I1
sg1304
I1
sg3157
I1
sg4773
I1
sg2091
I1
sg618
I1
sg5335
I1
sg563
I1
sg2117
I1
sg4011
I1
sg1838
I1
sg2225
I2
sg207
I1
sg112
I1
sg489
I3
sg903
I2
sg692
I1
sg2441
I1
sg2084
I1
sg1102
I2
sg712
I1
sg79
I1
sg1915
I1
sg260
I1
sg2098
I1
sg3667
I4
sg1112
I2
sg3757
I1
sg1960
I1
ssg3512
(dp6478
g1384
I1
sg3296
I1
sS'actions,'
p6479
I1
ssg4926
(dp6480
g200
I1
ssg4842
(dp6481
g3924
I1
ssg2537
(dp6482
g531
I1
sg45
I1
ssg3199
(dp6483
g4713
I1
sg45
I1
sg2916
I1
ssg6009
(dp6484
g1551
I1
ssg407
(dp6485
g60
I2
sg3516
I1
sg5458
I1
sg551
I1
sg370
I2
sg2958
I1
sg2349
I1
sg42
I1
sg55
I1
sg1427
I2
sg2750
I3
sg1016
I2
sg484
I1
sg598
I1
sg296
I3
sg1272
I1
sg3348
I1
sg1450
I1
sg590
I2
sNI1
sg1431
I2
sg6110
I1
sg1977
I4
sg411
I2
sg2692
I2
sg2168
I2
sg418
I4
sg3075
I1
sg5732
I3
sg745
I1
sg569
I3
sg5787
I1
sg1435
I2
sg1439
I1
sg422
I1
sg634
I1
sg497
I2
sg4521
I1
sg3174
I1
sg2445
I1
sg761
I1
sg331
I25
sg483
I1
sg1823
I3
sg621
I2
sg948
I1
sg5035
I1
sg3188
I1
sg4629
I1
sg1353
I1
sg3546
I1
sg6377
I1
sg2206
I1
sg5271
I1
sg359
I14
sg3032
I3
sg361
I3
sg3512
I1
sg424
I1
sS'execute'
p6486
I1
sg3067
I1
sg2781
I1
sg89
I2
sg5564
I1
sg492
I4
sg3192
I1
sg415
I3
sg2120
I1
sg5053
I1
sg4647
I3
sg1454
I5
sg1274
I1
sg498
I1
sg3282
I1
sg45
I5
sg4804
I1
sg3567
I2
sg1458
I2
ssg3517
(dp6487
g375
I1
ssg1571
(dp6488
g16
I1
sg6283
I1
sg322
I1
sg1563
I1
sg4833
I1
ssg3518
(dp6489
g348
I1
ssg6172
(dp6490
g3795
I1
ssS'site'
p6491
(dp6492
g960
I1
ssg1428
(dp6493
g516
I1
sg4533
I1
ssg3751
(dp6494
g89
I1
ssg5713
(dp6495
NI1
ssg41
(dp6496
g45
I5
sg322
I2
sg5691
I1
sg252
I1
sg6154
I1
sg2672
I1
sg269
I1
sg1412
I1
sg5680
I1
sg261
I1
sg15
I1
sg76
I1
sg243
I1
sS"iraq's"
p6497
I2
sg3787
I1
sg434
I1
sg840
I1
sg192
I1
sg735
I1
sg599
I1
sg134
I1
sg5603
I1
sg1065
I1
sg48
I2
sg583
I1
ssg2094
(dp6498
g89
I3
ssg3523
(dp6499
g2358
I2
ssg3832
(dp6500
g89
I1
ssg4307
(dp6501
g3253
I1
ssg210
(dp6502
g4715
I1
sNI1
sg1838
I1
sg4749
I1
sg1040
I1
ssg244
(dp6503
g335
I1
sg5807
I2
sg3116
I1
sg906
I1
sg2039
I2
sg4240
I1
sg3908
I2
sg5858
I1
sg2968
I1
sg1040
I2
sg3575
I1
sg517
I3
sg431
I1
sg4541
I1
ssg1752
(dp6504
g2873
I1
ssg6098
(dp6505
g132
I4
ssg554
(dp6506
g89
I1
sNI1
ssg1664
(dp6507
S'chemical,'
p6508
I1
ssg117
(dp6509
g89
I1
ssg437
(dp6510
g42
I1
ssg2551
(dp6511
S'eh'
p6512
I1
ssg1959
(dp6513
g553
I1
ssg347
(dp6514
g1712
I1
sNI1
ssg2290
(dp6515
g60
I1
sg23
I1
sNI2
ssg6391
(dp6516
g407
I1
ssg4942
(dp6517
g6414
I1
ssg4845
(dp6518
g60
I1
sNI1
sg3421
I1
ssg4366
(dp6519
g24
I1
sg1882
I1
ssg3390
(dp6520
g5794
I1
sNI3
sg26
I1
ssg1570
(dp6521
g752
I1
ssS'turkomans,'
p6522
(dp6523
g60
I1
sS"shi'a,"
p6524
I1
ssg1173
(dp6525
g5544
I4
sg1102
I1
sS'us,'
p6526
I2
sg735
I1
ssg4099
(dp6527
g45
I1
ssg876
(dp6528
g60
I1
ssg4661
(dp6529
g60
I1
sg207
I1
sg1888
I1
ssg4302
(dp6530
g133
I1
ssg4950
(dp6531
g89
I1
ssg4578
(dp6532
g171
I1
ssg3033
(dp6533
NI1
ssg2754
(dp6534
g60
I2
sg187
I1
sg340
I2
sg89
I1
sg5298
I1
sNI9
sg41
I2
ssg3587
(dp6535
g120
I1
ssg3106
(dp6536
g151
I1
sg1320
I1
ssg683
(dp6537
g434
I3
sg296
I9
sg1047
I5
sg3674
I6
sg4486
I3
sg1896
I1
sg416
I4
sg579
I3
sg6297
I1
sg32
I1
sg281
I4
sg1289
I2
sg408
I1
sg171
I2
sg6177
I1
sg4974
I7
sg5787
I1
sg432
I1
sg40
I9
sg5019
I1
sg621
I1
sg5035
I3
sg1089
I2
sg3860
I3
sg499
I3
sg891
I10
sg3192
I8
sg1630
I1
sg1022
I1
sg2489
I1
sg2742
I2
sg643
I4
sg331
I1
sg270
I1
sg738
I1
sg696
I4
sg5682
I1
sg407
I4
sg4863
I1
sg495
I4
sg2455
I3
sg622
I1
sg861
I1
sg291
I13
sg3898
I4
sg265
I1
ssg3020
(dp6538
g60
I1
sg23
I2
sg42
I1
sg133
I2
sg26
I1
sg212
I1
sNI6
sg1014
I1
ssg764
(dp6539
g23
I1
ssg1738
(dp6540
g77
I1
sg187
I1
sg133
I1
sg2736
I1
sNI2
sg4534
I1
ssS'patrols'
p6541
(dp6542
g89
I1
ssS'fighting'
p6543
(dp6544
g3635
I1
ssS'patterns'
p6545
(dp6546
g89
I1
ssg3647
(dp6547
g23
I1
ssg4140
(dp6548
g31
I1
sg246
I1
ssg2255
(dp6549
g46
I1
sg340
I1
sg1019
I1
ssg2004
(dp6550
NI1
ssg4605
(dp6551
g5388
I1
ssg3540
(dp6552
g23
I1
ssg1458
(dp6553
g243
I1
sg26
I2
sg247
I1
sg372
I2
sg45
I5
sS'today,'
p6554
I1
sg55
I2
sg293
I1
sg108
I1
ssg3542
(dp6555
g3516
I1
ssg5611
(dp6556
g60
I1
ssg4280
(dp6557
g5109
I1
ssg1589
(dp6558
g1188
I1
sg5304
I1
sg3421
I1
ssg6094
(dp6559
g85
I1
ssg3479
(dp6560
g50
I1
ssg6427
(dp6561
g3736
I1
ssg574
(dp6562
g1140
I1
ssg6383
(dp6563
g602
I1
ssg2859
(dp6564
g5136
I1
ssg5337
(dp6565
g89
I1
sg85
I1
sg2445
I1
sg3363
I1
ssg5232
(dp6566
g60
I1
sNI1
ssg4283
(dp6567
g2097
I1
ssg4293
(dp6568
g60
I2
ssg4921
(dp6569
g60
I1
ssg5242
(dp6570
g965
I1
ssg2983
(dp6571
g657
I1
ssg3763
(dp6572
g6491
I1
ssg5007
(dp6573
g950
I1
ssg3522
(dp6574
g45
I1
ssg4995
(dp6575
g525
I1
ssg5298
(dp6576
g23
I1
sg1532
I1
ssg3392
(dp6577
g431
I2
ssg6449
(dp6578
g60
I1
ssg4610
(dp6579
g23
I1
ssg1991
(dp6580
g1048
I1
ssg4913
(dp6581
g2709
I1
sg4479
I1
ssg6173
(dp6582
g533
I1
ssg6421
(dp6583
g3620
I1
ssg362
(dp6584
g23
I3
sg631
I3
ssg1441
(dp6585
S'today,'
p6586
I1
sg741
I1
sg26
I1
ssg3551
(dp6587
g1313
I1
ssg52
(dp6588
g407
I1
sg86
I2
sNI1
ssg2494
(dp6589
g60
I2
sg132
I1
sg6312
I1
sg26
I4
sg86
I2
sg407
I1
sg777
I1
sg1795
I4
sg348
I1
sNI2
sg477
I1
ssg2165
(dp6590
g60
I1
sg23
I1
sg924
I1
ssg273
(dp6591
NI1
ssg4078
(dp6592
g60
I1
ssg6486
(dp6593
g581
I1
ssg3645
(dp6594
g26
I1
ssg3391
(dp6595
g6211
I1
ssg5335
(dp6596
g3348
I1
sg2600
I1
ssg4270
(dp6597
g1355
I1
sS'years,'
p6598
I2
ssg1098
(dp6599
g89
I1
sg4697
I1
ssg2005
(dp6600
g89
I1
ssg3032
(dp6601
g60
I1
sg489
I2
sg472
I1
sNI1
sg500
I1
ssg3123
(dp6602
g1173
I1
sg1065
I1
ssg3231
(dp6603
g4369
I1
ssg4720
(dp6604
g187
I1
ssg2007
(dp6605
g71
I1
ssg4249
(dp6606
g252
I5
ssg3555
(dp6607
NI1
sg599
I1
ssg4414
(dp6608
g60
I1
ssg3642
(dp6609
NI1
ssg6257
(dp6610
g571
I1
ssg2572
(dp6611
g23
I1
sg55
I1
ssg3395
(dp6612
g45
I1
ssg5223
(dp6613
g599
I1
ssg3282
(dp6614
NI1
sg219
I4
ssg5026
(dp6615
g819
I1
ssg2706
(dp6616
g2445
I1
ssg2501
(dp6617
g348
I1
ssg6479
(dp6618
g85
I1
sg752
I1
sg322
I1
ssg188
(dp6619
g434
I1
sg85
I4
sg133
I1
sg683
I4
sg89
I1
sg45
I3
sg55
I2
sg37
I1
ssg3368
(dp6620
S"we've"
p6621
I1
sg85
I1
ssg5790
(dp6622
g1219
I1
ssg2015
(dp6623
g89
I1
sg23
I1
ssg1772
(dp6624
g4820
I4
ssg5853
(dp6625
NI3
ssg4716
(dp6626
g60
I1
ssg6104
(dp6627
NI1
ssg4510
(dp6628
g60
I1
sg187
I1
sNI1
ssg6267
(dp6629
g42
I1
ssg4505
(dp6630
g85
I1
sg34
I1
ssg5842
(dp6631
NI1
ssg2168
(dp6632
g243
I2
sg23
I1
sg45
I4
ssg6113
(dp6633
g60
I1
ssg3845
(dp6634
g60
I2
sg3398
I1
sg6340
I1
ssg4624
(dp6635
g732
I1
sS'war,'
p6636
I1
sg349
I1
ssg1900
(dp6637
g1194
I1
ssg3568
(dp6638
S'services,'
p6639
I1
ssg3975
(dp6640
g2609
I1
ssg1265
(dp6641
g182
I1
sg42
I1
ssg1923
(dp6642
g60
I1
ssg3186
(dp6643
g950
I1
ssg4303
(dp6644
g60
I1
sg85
I1
sg5933
I1
sg296
I1
ssg2449
(dp6645
NI1
ssg3951
(dp6646
g23
I1
ssg4718
(dp6647
g3721
I1
ssg6203
(dp6648
g55
I3
ssg2584
(dp6649
g960
I1
ssg526
(dp6650
g6245
I1
sg599
I1
ssg2036
(dp6651
g1956
I1
ssg3610
(dp6652
g103
I1
ssg605
(dp6653
g502
I3
sg1355
I1
sg269
I1
sg4001
I1
sg6030
I6
sg531
I1
sg2370
I1
sg26
I1
sg211
I3
sg599
I1
sg187
I1
sg2467
I1
sg2492
I1
sg359
I1
sg45
I9
sg1375
I1
ssS'corps,'
p6654
(dp6655
g3253
I1
ssg2038
(dp6656
g5650
I1
ssg5504
(dp6657
g1551
I2
ssg3865
(dp6658
g60
I1
sg3631
I1
sg37
I1
ssg2040
(dp6659
g60
I1
sg23
I2
sg85
I1
sg6654
I1
sg31
I1
sg89
I1
sg86
I2
sNI3
ssg2041
(dp6660
g89
I1
ssg2520
(dp6661
g1382
I1
ssg1401
(dp6662
g60
I1
ssg6282
(dp6663
g49
I1
ssg3439
(dp6664
g45
I1
ssg69
(dp6665
g1014
I6
sg5117
I1
sg1123
I8
sg23
I1
sg2096
I1
sg1956
I1
sg492
I1
sg554
I1
sg5870
I1
sg1586
I1
sS'inspectors,'
p6666
I1
sg1157
I1
sg348
I1
sg40
I1
sg3020
I1
ssg5103
(dp6667
g3679
I1
ssg4635
(dp6668
g243
I1
ssg3478
(dp6669
g246
I1
ssg3623
(dp6670
g42
I1
ssg2523
(dp6671
g19
I1
ssg2077
(dp6672
g3749
I1
sg710
I1
sg998
I1
sg5891
I1
ssg1426
(dp6673
g55
I1
ssg5944
(dp6674
g45
I1
ssg4077
(dp6675
g4451
I4
sg3212
I1
ssg2431
(dp6676
g23
I3
sNI1
sg752
I1
sg89
I1
ssg3041
(dp6677
g89
I1
ssg1315
(dp6678
g60
I1
sg372
I1
sg6541
I1
ssg6130
(dp6679
g4699
I2
ssg2741
(dp6680
g5539
I1
ssg6512
(dp6681
g5809
I1
ssg1576
(dp6682
g2472
I1
ssg903
(dp6683
g5722
I1
sg1123
I1
sg2702
I1
sg3947
I1
ssg4102
(dp6684
g60
I1
ssg356
(dp6685
NI1
sg162
I1
ssg5644
(dp6686
g41
I1
ssg1749
(dp6687
NI1
ssg5301
(dp6688
NI1
ssg5618
(dp6689
g894
I4
ssg1696
(dp6690
g257
I1
sg247
I1
sg243
I1
sg219
I1
ssg4650
(dp6691
g1999
I1
sg654
I1
sg429
I1
sg4327
I1
ssg593
(dp6692
g2100
I3
sg5361
I1
ssg2532
(dp6693
g1630
I1
sg6090
I3
sg285
I1
ssg3495
(dp6694
g5373
I1
ssg4326
(dp6695
g960
I1
ssg1753
(dp6696
g85
I3
sg683
I4
sg31
I1
sg531
I1
sS"it's"
p6697
I4
sg706
I1
sg322
I1
sg55
I2
sg119
I1
sg23
I1
sg2916
I1
sg853
I1
sg359
I3
sg2277
I1
sS"i'm"
p6698
I2
sg45
I1
sS"that's"
p6699
I1
ssg2504
(dp6700
S"it's"
p6701
I1
sg1479
I1
ssg4432
(dp6702
g5011
I1
ssg6238
(dp6703
g2097
I1
ssg3590
(dp6704
g89
I1
sNI1
ssg4999
(dp6705
g187
I3
ssg957
(dp6706
g3421
I1
ssg4609
(dp6707
g1545
I1
ssg4837
(dp6708
g60
I1
ssg37
(dp6709
g60
I2
sg1828
I1
sg182
I1
sg2566
I2
sg1447
I1
sg1007
I2
sg4370
I1
sg5458
I1
sg2841
I1
sS'said,'
p6710
I1
sg4840
I1
sg86
I3
sg4063
I3
sg1289
I1
sg171
I3
sg4558
I1
sg6174
I1
sS'says,'
p6711
I1
sg738
I2
sg1084
I1
sg5709
I1
sg1805
I1
sg407
I2
sg1577
I1
sg1455
I1
sg5616
I1
sg348
I13
sg40
I1
sg431
I4
sS"can't"
p6712
I6
ssg3160
(dp6713
g243
I2
sg23
I1
sg1962
I1
sg45
I1
sg665
I1
sg219
I1
ssg2259
(dp6714
g243
I1
sg23
I1
ssg4273
(dp6715
g60
I1
sg42
I1
ssg2538
(dp6716
g55
I4
ssg4843
(dp6717
g257
I2
sg200
I3
sg672
I1
sg6047
I1
ssg423
(dp6718
g2097
I1
ssg3719
(dp6719
g42
I1
ssg1254
(dp6720
g119
I1
sg134
I1
sg1082
I1
sg599
I2
sS'chemical,'
p6721
I1
ssg6362
(dp6722
g26
I1
ssg4581
(dp6723
g23
I1
ssg5025
(dp6724
g683
I1
ssg691
(dp6725
g60
I1
ssg2588
(dp6726
g23
I1
sNI1
sg599
I1
ssg6189
(dp6727
NI1
ssg4087
(dp6728
g60
I1
sg3248
I1
ssg1497
(dp6729
g24
I1
ssg2081
(dp6730
NI1
sg19
I1
sg23
I1
ssg1697
(dp6731
g60
I1
sg2629
I1
ssg997
(dp6732
g45
I2
ssg5205
(dp6733
g188
I1
ssg340
(dp6734
g4502
I1
sg367
I1
sg1684
I1
sg652
I1
sg3503
I1
sg5753
I1
sg1714
I2
sg732
I1
sg42
I2
sg3624
I1
sg322
I2
sg360
I3
sg187
I2
sg2996
I1
sg24
I1
sg2680
I1
sg2801
I1
sg5519
I2
sg3489
I1
sg6302
I1
sg1355
I1
sg487
I1
sg1690
I1
sg133
I1
sg5258
I1
sg1712
I2
sg6402
I1
sg4656
I1
sg1579
I3
sg3180
I1
sg2391
I1
sg2605
I1
sg145
I1
sg5094
I1
sg1808
I1
sg1441
I1
sg243
I4
sg85
I1
sg886
I1
sg6465
I1
sg997
I1
sg1821
I1
sg5367
I1
sg6150
I1
sg1173
I1
sg649
I1
sg4739
I1
sg359
I7
sg5310
I1
sg5586
I1
sg274
I1
sg2432
I1
sg5112
I1
sg6416
I1
sg6134
I1
sg1696
I1
sg1693
I3
sg3160
I1
sg991
I1
sg533
I1
sg1736
I1
sg312
I1
sg998
I1
sg6543
I1
sg4134
I1
sg5682
I1
sg676
I1
sg5189
I1
sg1132
I1
sg3795
I1
sg1123
I1
sg4275
I1
sg1725
I1
sg2331
I1
sg1741
I1
ssg3597
(dp6735
g60
I1
ssg481
(dp6736
g247
I1
sg1036
I1
ssg2089
(dp6737
g432
I1
ssg101
(dp6738
g407
I1
sg348
I1
sg96
I3
ssg810
(dp6739
g3930
I1
ssg5640
(dp6740
g5873
I1
ssg2093
(dp6741
g60
I1
ssg2600
(dp6742
g602
I1
sg2732
I1
ssg2549
(dp6743
g422
I1
ssg4948
(dp6744
g6459
I4
ssg51
(dp6745
g340
I1
ssg3604
(dp6746
g219
I1
ssg3156
(dp6747
g4216
I1
ssg1718
(dp6748
g60
I1
ssg5666
(dp6749
g914
I1
ssg4949
(dp6750
g89
I1
ssg3605
(dp6751
g2697
I1
sg3583
I1
sg2810
I1
sg1534
I2
sNI1
sg349
I1
ssg4607
(dp6752
g5601
I1
ssg3913
(dp6753
g89
I1
sg1926
I1
ssg1167
(dp6754
g722
I1
sg1447
I1
sNI2
sg42
I1
ssg3606
(dp6755
g79
I1
ssg1374
(dp6756
g6545
I1
sg1413
I1
ssg2097
(dp6757
g257
I1
sg4375
I1
sg3257
I1
sg1327
I2
sg5493
I1
sg3605
I2
sg865
I1
sS'measures,'
p6758
I1
sg4033
I1
sg4957
I1
sg965
I5
sg119
I1
sg3549
I1
sg1504
I1
sg4021
I1
sg5517
I1
sg1902
I1
sNI1
sg6146
I1
sg666
I2
sg1099
I2
ssg2720
(dp6759
g60
I3
ssg5248
(dp6760
g89
I1
ssg4441
(dp6761
g60
I1
sg3778
I1
sg3766
I1
sg5394
I1
ssg4121
(dp6762
g60
I1
ssg4332
(dp6763
S'aggression,'
p6764
I1
sg38
I1
sg644
I1
ssg6307
(dp6765
g531
I1
ssg4000
(dp6766
g2852
I1
sg6522
I1
ssg5712
(dp6767
g60
I1
sg434
I1
sg45
I1
sg85
I1
ssg2107
(dp6768
g89
I1
ssg1088
(dp6769
g953
I1
sg718
I1
sg950
I1
ssg3261
(dp6770
g583
I4
ssg3749
(dp6771
g23
I2
sg269
I1
ssg4717
(dp6772
g31
I1
ssg4105
(dp6773
g3885
I1
ssg1731
(dp6774
g599
I1
ssg6106
(dp6775
g60
I3
sNI2
sg340
I1
ssg1531
(dp6776
g89
I1
ssg1126
(dp6777
NI1
ssg4952
(dp6778
g60
I1
ssg2898
(dp6779
g372
I1
ssg263
(dp6780
g407
I1
sg1302
I1
sg699
I1
sg26
I1
sg13
I1
sg2601
I1
sS'687,'
p6781
I1
sg6353
I1
ssg3497
(dp6782
g407
I1
sg23
I1
sg60
I1
sNI3
sg296
I1
ssg2119
(dp6783
g89
I1
sg76
I1
ssg5462
(dp6784
g89
I1
ssg4644
(dp6785
g45
I1
ssg2464
(dp6786
g2263
I1
sg6309
I1
ssg899
(dp6787
g86
I1
ssg499
(dp6788
g222
I3
sg45
I1
sg26
I1
sg96
I3
ssg6462
(dp6789
g45
I1
sssb.